ARM GAS  /cygdrive/c/Users/embedded/AppData/Local/Temp/ccelz1ts.s 			page 1


   1              		.file	"consol.c"
   8 0000 8F010000 		.text
   8      02006C00 
   8      00000201 
   8      FB0E0D00 
   8      01010101 
   9              	.Ltext0:
  10              		.global	__umodsi3
  11              		.global	__udivsi3
  12              		.section	.rodata.str1.4,"aMS",%progbits,1
  13              		.align	2
  14              	.LC0:
  15 0000 30313233 		.ascii	"0123456789abcdef\000"
  15      34353637 
  15      38396162 
  15      63646566 
  15      00
  16              		.text
  17              		.align	2
  18              		.type	printNum, %function
  19              	printNum:
  20              	.LFB2:
  21              		.file 1 "consol.c"
   1:consol.c      **** /******************************************************************************
   2:consol.c      ****  *
   3:consol.c      ****  * Copyright:
   4:consol.c      ****  *    (C) 2000 - 2005 Embedded Artists AB
   5:consol.c      ****  *
   6:consol.c      ****  * Description:
   7:consol.c      ****  *    Framework specific implementation of consol
   8:consol.c      ****  *
   9:consol.c      ****  *****************************************************************************/
  10:consol.c      **** 
  11:consol.c      **** 
  12:consol.c      **** /******************************************************************************
  13:consol.c      ****  * Includes
  14:consol.c      ****  *****************************************************************************/
  15:consol.c      **** 
  16:consol.c      **** #include "lpc2xxx.h"                            /* LPC2xxx definitions */
  17:consol.c      **** #include <string.h>
  18:consol.c      **** #include <stdlib.h>
  19:consol.c      **** #include "config.h"
  20:consol.c      **** #include "consol.h"
  21:consol.c      **** #include "framework.h"
  22:consol.c      **** 
  23:consol.c      **** #if (CONSOLE_API_PRINTF == 1) || (CONSOLE_API_SCANF == 1) //own simple printf() or scanf()
  24:consol.c      **** #include <stdarg.h>
  25:consol.c      **** #endif
  26:consol.c      **** 
  27:consol.c      **** #define UART_DLL_VALUE (unsigned short)((PCLK / (CONSOL_BITRATE * 16.0)) + 0.5)
  28:consol.c      **** 
ARM GAS  /cygdrive/c/Users/embedded/AppData/Local/Temp/ccelz1ts.s 			page 2


  29:consol.c      **** #if (CONSOLE_API_SCANF == 1)  //SIMPLE
  30:consol.c      **** #define __isalpha(c) (c >'9')
  31:consol.c      **** #define __isupper(c) !(c & 0x20)
  32:consol.c      **** #define __ishex(c) (((c >= '0')&&(c <= '9'))||((c >= 'A')&&(c <= 'F')))
  33:consol.c      **** #define __ascii2hex(c) ((c <= '9')? c-'0': c-'A'+10)
  34:consol.c      **** #endif
  35:consol.c      **** 
  36:consol.c      **** /******************************************************************************
  37:consol.c      ****  * Implementation of local functions
  38:consol.c      ****  *****************************************************************************/
  39:consol.c      **** 
  40:consol.c      **** #if (CONSOLE_API_PRINTF == 1)  //OWN_PRINTF
  41:consol.c      **** /*****************************************************************************
  42:consol.c      ****  *
  43:consol.c      ****  * Description:
  44:consol.c      ****  *    Print a number. 
  45:consol.c      ****  *
  46:consol.c      ****  * Params:
  47:consol.c      ****  *    [in] outputFnk - Output function where characters to be printed are 
  48:consol.c      ****  *                      sent 
  49:consol.c      ****  * 
  50:consol.c      ****  *                Params (callback):
  51:consol.c      ****  *                   ch - Character to be printed 
  52:consol.c      ****  *    [in] number    - Number to be printed 
  53:consol.c      ****  *    [in] base      - Base when printing number (2-16) 
  54:consol.c      ****  *
  55:consol.c      ****  ****************************************************************************/
  56:consol.c      **** static void
  57:consol.c      **** printNum(void (*outputFnk) (char ch),
  58:consol.c      ****          unsigned int number,
  59:consol.c      ****          unsigned int base)
  60:consol.c      **** {
  22              		.loc 1 60 0
  23              		@ Function supports interworking.
  24              		@ args = 0, pretend = 0, frame = 52
  25              		@ frame_needed = 0, uses_anonymous_args = 0
  26              	.LVL0:
  27 0000 F0402DE9 		stmfd	sp!, {r4, r5, r6, r7, lr}
  28              	.LCFI0:
  29 0004 34D04DE2 		sub	sp, sp, #52
  30              	.LCFI1:
  31              		.loc 1 60 0
  32 0008 0070A0E1 		mov	r7, r0
  33 000c 0140A0E1 		mov	r4, r1
  34 0010 0260A0E1 		mov	r6, r2
  61:consol.c      **** 	char *p;
  62:consol.c      **** 	char  buf[33];
  63:consol.c      **** 	char  hexChars[] = "0123456789abcdef";
  35              		.loc 1 63 0
  36 0014 23008DE2 		add	r0, sp, #35
  37              	.LVL1:
  38 0018 60109FE5 		ldr	r1, .L11
  39              	.LVL2:
  40 001c 1120A0E3 		mov	r2, #17
  41              	.LVL3:
  42 0020 FEFFFFEB 		bl	memcpy
  43 0024 02508DE2 		add	r5, sp, #2
ARM GAS  /cygdrive/c/Users/embedded/AppData/Local/Temp/ccelz1ts.s 			page 3


  44              	.LVL4:
  45              	.L2:
  64:consol.c      **** 	
  65:consol.c      **** 	p = buf;
  66:consol.c      **** 	
  67:consol.c      **** 	do {
  68:consol.c      **** 		*p++ = hexChars[number % base];
  46              		.loc 1 68 0
  47 0028 0400A0E1 		mov	r0, r4
  48 002c 0610A0E1 		mov	r1, r6
  49 0030 FEFFFFEB 		bl	__umodsi3
  50 0034 34308DE2 		add	r3, sp, #52
  51 0038 000083E0 		add	r0, r3, r0
  52 003c 113050E5 		ldrb	r3, [r0, #-17]	@ zero_extendqisi2
  69:consol.c      **** 	} while (number /= base);
  53              		.loc 1 69 0
  54 0040 0610A0E1 		mov	r1, r6
  55 0044 0400A0E1 		mov	r0, r4
  56              		.loc 1 68 0
  57 0048 0130C5E4 		strb	r3, [r5], #1
  58              		.loc 1 69 0
  59 004c FEFFFFEB 		bl	__udivsi3
  60 0050 004050E2 		subs	r4, r0, #0
  61 0054 F3FFFF1A 		bne	.L2
  62 0058 0540A0E1 		mov	r4, r5
  63              	.LVL5:
  64              	.L4:
  70:consol.c      **** 	
  71:consol.c      **** 	do {
  72:consol.c      **** 		outputFnk(*--p);
  65              		.loc 1 72 0
  66 005c 010074E5 		ldrb	r0, [r4, #-1]!	@ zero_extendqisi2
  67 0060 0FE0A0E1 		mov	lr, pc
  68 0064 17FF2FE1 		bx	r7
  73:consol.c      **** 	} while (p > buf);
  69              		.loc 1 73 0
  70 0068 02308DE2 		add	r3, sp, #2
  71 006c 030054E1 		cmp	r4, r3
  72 0070 F9FFFF8A 		bhi	.L4
  74:consol.c      **** }
  73              		.loc 1 74 0
  74 0074 34D08DE2 		add	sp, sp, #52
  75 0078 F040BDE8 		ldmfd	sp!, {r4, r5, r6, r7, lr}
  76 007c 1EFF2FE1 		bx	lr
  77              	.L12:
  78              		.align	2
  79              	.L11:
  80 0080 00000000 		.word	.LC0
  81              	.LFE2:
  82              		.size	printNum, .-printNum
  83              		.align	2
  84              		.global	consolInit
  85              		.type	consolInit, %function
  86              	consolInit:
  87              	.LFB4:
  75:consol.c      **** 
  76:consol.c      **** /*****************************************************************************
ARM GAS  /cygdrive/c/Users/embedded/AppData/Local/Temp/ccelz1ts.s 			page 4


  77:consol.c      ****  *
  78:consol.c      ****  * Description:
  79:consol.c      ****  *    A simple implementation of printf that uses a minimum of stack space.
  80:consol.c      ****  *
  81:consol.c      ****  * Params:
  82:consol.c      ****  *    [in] outputFnk - Output function where characters to be printed are 
  83:consol.c      ****  *                      sent 
  84:consol.c      ****  * 
  85:consol.c      ****  *                Params (callback):
  86:consol.c      ****  *                   ch - Character to be printed 
  87:consol.c      ****  *    [in] fmt       - Format string that specifies what to be printed 
  88:consol.c      ****  *    [in] ap        - Structure that hold information about the variable 
  89:consol.c      ****  *                     number of parameters 
  90:consol.c      ****  *
  91:consol.c      ****  ****************************************************************************/
  92:consol.c      **** static void
  93:consol.c      **** simplePrint(void         (*outputFnk) (char ch),
  94:consol.c      ****             const char * fmt,
  95:consol.c      ****             va_list      ap)
  96:consol.c      **** {
  97:consol.c      ****   char          *p;
  98:consol.c      ****   char           ch;
  99:consol.c      ****   unsigned long  ul;
 100:consol.c      ****   unsigned char  lflag;
 101:consol.c      **** 
 102:consol.c      ****   for (;;)
 103:consol.c      ****   {
 104:consol.c      ****     while ((ch = *fmt++) != '%')
 105:consol.c      ****     {
 106:consol.c      ****       if (ch == '\0')
 107:consol.c      ****         	return;
 108:consol.c      ****       outputFnk(ch);
 109:consol.c      ****     }
 110:consol.c      ****     lflag = 0;
 111:consol.c      **** 
 112:consol.c      **** reswitch:
 113:consol.c      **** 
 114:consol.c      ****     switch (ch = *fmt++)
 115:consol.c      ****     {
 116:consol.c      ****     case '\0':
 117:consol.c      ****       return;
 118:consol.c      **** 
 119:consol.c      ****     case 'l':
 120:consol.c      ****       lflag = 1;
 121:consol.c      ****       goto reswitch;
 122:consol.c      **** 
 123:consol.c      ****     case 'c':
 124:consol.c      **** 	    ch = va_arg(ap, unsigned int);
 125:consol.c      **** 	    outputFnk(ch & 0x7f);
 126:consol.c      **** 	    break;
 127:consol.c      **** 
 128:consol.c      ****     case 's':
 129:consol.c      ****       p = va_arg(ap, char *);
 130:consol.c      ****       while ((ch = *p++) != 0)
 131:consol.c      ****         outputFnk(ch);
 132:consol.c      ****       break;
 133:consol.c      **** 
ARM GAS  /cygdrive/c/Users/embedded/AppData/Local/Temp/ccelz1ts.s 			page 5


 134:consol.c      ****     case 'd':
 135:consol.c      ****       ul = lflag ? va_arg(ap, long) : va_arg(ap, unsigned int);
 136:consol.c      ****       if ((long)ul < 0)
 137:consol.c      ****       {
 138:consol.c      ****         outputFnk('-');
 139:consol.c      ****         ul = -(long)ul;
 140:consol.c      ****       }
 141:consol.c      ****       printNum(outputFnk, ul, 10);
 142:consol.c      ****       break;
 143:consol.c      **** 
 144:consol.c      ****     case 'o':
 145:consol.c      ****       ul = va_arg(ap, unsigned int);
 146:consol.c      ****       printNum(outputFnk, ul, 8);
 147:consol.c      ****       break;
 148:consol.c      **** 
 149:consol.c      ****     case 'u':
 150:consol.c      ****       ul = va_arg(ap, unsigned int);
 151:consol.c      ****       printNum(outputFnk, ul, 10);
 152:consol.c      ****       break;
 153:consol.c      **** 
 154:consol.c      ****     case 'p':
 155:consol.c      ****       outputFnk('0');
 156:consol.c      ****       outputFnk('x');
 157:consol.c      ****       lflag = 1;
 158:consol.c      ****       // fall through
 159:consol.c      **** 
 160:consol.c      ****     case 'x':
 161:consol.c      ****       ul = va_arg(ap, unsigned int);
 162:consol.c      ****       printNum(outputFnk, ul, 16);
 163:consol.c      ****       break;
 164:consol.c      **** 
 165:consol.c      ****     default:
 166:consol.c      **** //      outputFnk('%');
 167:consol.c      ****       if (lflag)
 168:consol.c      ****         outputFnk('l');
 169:consol.c      ****       outputFnk(ch);
 170:consol.c      ****     }
 171:consol.c      ****   }
 172:consol.c      ****   va_end(ap);
 173:consol.c      **** }
 174:consol.c      **** #endif
 175:consol.c      **** 
 176:consol.c      **** /******************************************************************************
 177:consol.c      ****  * Implementation of public functions
 178:consol.c      ****  *****************************************************************************/
 179:consol.c      **** 
 180:consol.c      **** 
 181:consol.c      **** /*****************************************************************************
 182:consol.c      ****  *
 183:consol.c      ****  * Description:
 184:consol.c      ****  *    Initializes the consol channel (init UART, including setting bitrate and 
 185:consol.c      ****  *    GPIO). 
 186:consol.c      ****  *
 187:consol.c      ****  ****************************************************************************/
 188:consol.c      **** void
 189:consol.c      **** consolInit(void)
 190:consol.c      **** {
ARM GAS  /cygdrive/c/Users/embedded/AppData/Local/Temp/ccelz1ts.s 			page 6


  88              		.loc 1 190 0
  89              		@ Function supports interworking.
  90              		@ args = 0, pretend = 0, frame = 0
  91              		@ frame_needed = 0, uses_anonymous_args = 0
  92              		@ link register save eliminated.
 191:consol.c      **** #if (CONSOL_UART == 0)
 192:consol.c      ****   //enable uart #0 pins in GPIO (P0.0 = TxD0, P0.1 = RxD0)
 193:consol.c      ****   PINSEL0 = (PINSEL0 & 0xfffffff0) | 0x00000005;
  93              		.loc 1 193 0
  94 0084 40009FE5 		ldr	r0, .L15
  95 0088 003090E5 		ldr	r3, [r0, #0]
  96 008c 0F30C3E3 		bic	r3, r3, #15
 194:consol.c      **** #else
 195:consol.c      ****   //enable uart #1 pins in GPIO (P0.8 = TxD1, P9.1 = RxD1)
 196:consol.c      ****   PINSEL0 = (PINSEL0 & 0xfff0ffff) | 0x00050000;
 197:consol.c      **** #endif
 198:consol.c      **** 
 199:consol.c      ****   //initialize bitrate (by first enable DL registers, DLAB-bit = 1)
 200:consol.c      ****   UART_LCR = 0x80;
  97              		.loc 1 200 0
  98 0090 38209FE5 		ldr	r2, .L15+4
  99              		.loc 1 193 0
 100 0094 053083E3 		orr	r3, r3, #5
 101 0098 003080E5 		str	r3, [r0, #0]
 102              		.loc 1 200 0
 103 009c 8030A0E3 		mov	r3, #128
 104 00a0 0C3082E5 		str	r3, [r2, #12]
 201:consol.c      ****   UART_DLL = (unsigned char)(UART_DLL_VALUE & 0x00ff);
 105              		.loc 1 201 0
 106 00a4 2030A0E3 		mov	r3, #32
 107 00a8 003082E5 		str	r3, [r2, #0]
 202:consol.c      ****   UART_DLM = (unsigned char)(UART_DLL_VALUE>>8);
 108              		.loc 1 202 0
 109 00ac 0010A0E3 		mov	r1, #0
 203:consol.c      ****   UART_LCR = 0x00;
 204:consol.c      **** 
 205:consol.c      ****   //initialize LCR: 8N1
 206:consol.c      ****   UART_LCR = 0x03;
 110              		.loc 1 206 0
 111 00b0 0330A0E3 		mov	r3, #3
 112              		.loc 1 202 0
 113 00b4 041082E5 		str	r1, [r2, #4]
 114              		.loc 1 190 0
 115              		@ lr needed for prologue
 116              		.loc 1 203 0
 117 00b8 0C1082E5 		str	r1, [r2, #12]
 118              		.loc 1 206 0
 119 00bc 0C3082E5 		str	r3, [r2, #12]
 207:consol.c      **** 
 208:consol.c      ****   //reset FIFO
 209:consol.c      ****   UART_FCR = 0x00;
 120              		.loc 1 209 0
 121 00c0 081082E5 		str	r1, [r2, #8]
 210:consol.c      **** 
 211:consol.c      ****   //clear interrupt bits
 212:consol.c      ****   UART_IER = 0x00;
 122              		.loc 1 212 0
ARM GAS  /cygdrive/c/Users/embedded/AppData/Local/Temp/ccelz1ts.s 			page 7


 123 00c4 041082E5 		str	r1, [r2, #4]
 213:consol.c      **** }
 124              		.loc 1 213 0
 125 00c8 1EFF2FE1 		bx	lr
 126              	.L16:
 127              		.align	2
 128              	.L15:
 129 00cc 00C002E0 		.word	-536690688
 130 00d0 00C000E0 		.word	-536821760
 131              	.LFE4:
 132              		.size	consolInit, .-consolInit
 133              		.align	2
 134              		.global	consolSendChar
 135              		.type	consolSendChar, %function
 136              	consolSendChar:
 137              	.LFB5:
 214:consol.c      **** 
 215:consol.c      **** /*****************************************************************************
 216:consol.c      ****  *
 217:consol.c      ****  * Description:
 218:consol.c      ****  *    Blocking consol output routine, i.e., the routine waits until the uart 
 219:consol.c      ****  *    buffer is free and then sends the character. 
 220:consol.c      ****  *
 221:consol.c      ****  * Params:
 222:consol.c      ****  *    [in] charToSend - The character to print (to the consol) 
 223:consol.c      ****  *
 224:consol.c      ****  ****************************************************************************/
 225:consol.c      **** void
 226:consol.c      **** consolSendChar(char charToSend)
 227:consol.c      **** {
 138              		.loc 1 227 0
 139              		@ Function supports interworking.
 140              		@ args = 0, pretend = 0, frame = 0
 141              		@ frame_needed = 0, uses_anonymous_args = 0
 142              		@ link register save eliminated.
 143              	.LVL6:
 144              		@ lr needed for prologue
 145 00d4 FF0000E2 		and	r0, r0, #255
 146              	.L19:
 228:consol.c      ****   //Wait until THR is empty
 229:consol.c      ****   while(!(UART_LSR & 0x20))
 147              		.loc 1 229 0
 148 00d8 10209FE5 		ldr	r2, .L24
 149 00dc 143092E5 		ldr	r3, [r2, #20]
 150 00e0 200013E3 		tst	r3, #32
 151 00e4 FBFFFF0A 		beq	.L19
 230:consol.c      ****     ;
 231:consol.c      ****   UART_THR = charToSend;
 152              		.loc 1 231 0
 153 00e8 000082E5 		str	r0, [r2, #0]
 232:consol.c      **** }
 154              		.loc 1 232 0
 155 00ec 1EFF2FE1 		bx	lr
 156              	.L25:
 157              		.align	2
 158              	.L24:
 159 00f0 00C000E0 		.word	-536821760
ARM GAS  /cygdrive/c/Users/embedded/AppData/Local/Temp/ccelz1ts.s 			page 8


 160              	.LFE5:
 161              		.size	consolSendChar, .-consolSendChar
 162              		.align	2
 163              		.global	consolSendCh
 164              		.type	consolSendCh, %function
 165              	consolSendCh:
 166              	.LFB6:
 233:consol.c      **** 
 234:consol.c      **** /*****************************************************************************
 235:consol.c      ****  *
 236:consol.c      ****  * Description:
 237:consol.c      ****  *    Consol output routine that adds extra line feeds at line breaks. 
 238:consol.c      ****  *
 239:consol.c      ****  * Params:
 240:consol.c      ****  *    [in] charToSend - The character to print (to the consol) 
 241:consol.c      ****  *
 242:consol.c      ****  ****************************************************************************/
 243:consol.c      **** void
 244:consol.c      **** consolSendCh(char charToSend)
 245:consol.c      **** {
 167              		.loc 1 245 0
 168              		@ Function supports interworking.
 169              		@ args = 0, pretend = 0, frame = 0
 170              		@ frame_needed = 0, uses_anonymous_args = 0
 171              		@ link register save eliminated.
 172              	.LVL7:
 173 00f4 FF0000E2 		and	r0, r0, #255
 246:consol.c      ****   if(charToSend == '\n')
 174              		.loc 1 246 0
 175 00f8 0A0050E3 		cmp	r0, #10
 176              		.loc 1 245 0
 177              		@ lr needed for prologue
 178              		.loc 1 246 0
 179 00fc 0500001A 		bne	.L34
 180              	.L33:
 181              	.LBB8:
 182              	.LBB9:
 183              		.loc 1 229 0
 184 0100 2C209FE5 		ldr	r2, .L39
 185 0104 143092E5 		ldr	r3, [r2, #20]
 186 0108 200013E3 		tst	r3, #32
 187 010c FBFFFF0A 		beq	.L33
 188              		.loc 1 231 0
 189 0110 0D30A0E3 		mov	r3, #13
 190 0114 003082E5 		str	r3, [r2, #0]
 191              	.L34:
 192              	.LBE9:
 193              	.LBE8:
 194              	.LBB10:
 195              	.LBB11:
 196              		.loc 1 229 0
 197 0118 14209FE5 		ldr	r2, .L39
 198 011c 143092E5 		ldr	r3, [r2, #20]
 199 0120 200013E3 		tst	r3, #32
 200 0124 FBFFFF0A 		beq	.L34
 201              		.loc 1 231 0
 202 0128 FF3000E2 		and	r3, r0, #255
ARM GAS  /cygdrive/c/Users/embedded/AppData/Local/Temp/ccelz1ts.s 			page 9


 203 012c 003082E5 		str	r3, [r2, #0]
 204              	.LBE11:
 205              	.LBE10:
 247:consol.c      ****     consolSendChar('\r');
 248:consol.c      **** 
 249:consol.c      ****   consolSendChar(charToSend);
 250:consol.c      **** }
 206              		.loc 1 250 0
 207 0130 1EFF2FE1 		bx	lr
 208              	.L40:
 209              		.align	2
 210              	.L39:
 211 0134 00C000E0 		.word	-536821760
 212              	.LFE6:
 213              		.size	consolSendCh, .-consolSendCh
 214              		.align	2
 215              		.global	consolSendString
 216              		.type	consolSendString, %function
 217              	consolSendString:
 218              	.LFB7:
 251:consol.c      **** 
 252:consol.c      **** /*****************************************************************************
 253:consol.c      ****  *
 254:consol.c      ****  * Description:
 255:consol.c      ****  *    Print string to consol. 
 256:consol.c      ****  *
 257:consol.c      ****  * Params:
 258:consol.c      ****  *    [in] pString - Pointer to string to be printed 
 259:consol.c      ****  *
 260:consol.c      ****  ****************************************************************************/
 261:consol.c      **** void
 262:consol.c      **** consolSendString(char *pString)
 263:consol.c      **** {
 219              		.loc 1 263 0
 220              		@ Function supports interworking.
 221              		@ args = 0, pretend = 0, frame = 0
 222              		@ frame_needed = 0, uses_anonymous_args = 0
 223              	.LVL8:
 224 0138 10402DE9 		stmfd	sp!, {r4, lr}
 225              	.LCFI2:
 226              		.loc 1 263 0
 227 013c 0040A0E1 		mov	r4, r0
 228 0140 000000EA 		b	.L42
 229              	.LVL9:
 230              	.L43:
 264:consol.c      ****   while(*pString)
 265:consol.c      ****     consolSendCh(*pString++);
 231              		.loc 1 265 0
 232 0144 FEFFFFEB 		bl	consolSendCh
 233              	.LVL10:
 234              	.L42:
 235              		.loc 1 264 0
 236 0148 0030D4E5 		ldrb	r3, [r4, #0]	@ zero_extendqisi2
 237 014c 000053E3 		cmp	r3, #0
 238              		.loc 1 265 0
 239 0150 0300A0E1 		mov	r0, r3
 240 0154 014084E2 		add	r4, r4, #1
ARM GAS  /cygdrive/c/Users/embedded/AppData/Local/Temp/ccelz1ts.s 			page 10


 241              		.loc 1 264 0
 242 0158 F9FFFF1A 		bne	.L43
 266:consol.c      **** }
 243              		.loc 1 266 0
 244 015c 1040BDE8 		ldmfd	sp!, {r4, lr}
 245 0160 1EFF2FE1 		bx	lr
 246              	.LFE7:
 247              		.size	consolSendString, .-consolSendString
 248              		.align	2
 249              		.global	consolSendNumber
 250              		.type	consolSendNumber, %function
 251              	consolSendNumber:
 252              	.LFB8:
 267:consol.c      **** 
 268:consol.c      **** /*****************************************************************************
 269:consol.c      ****  *
 270:consol.c      ****  * Description:
 271:consol.c      ****  *    Routine for printing integer numbers in various formats. The number is 
 272:consol.c      ****  *    printed in the specified 'base' using exactly 'noDigits', using +/- if 
 273:consol.c      ****  *    signed flag 'sign' is TRUE, and using the character specified in 'pad' 
 274:consol.c      ****  *    to pad extra characters. 
 275:consol.c      ****  *
 276:consol.c      ****  * Params:
 277:consol.c      ****  *    [in] base     - Base to print number in (2-16) 
 278:consol.c      ****  *    [in] noDigits - Number of digits to print (max 32) 
 279:consol.c      ****  *    [in] sign     - Flag if sign is to be used (TRUE), or not (FALSE) 
 280:consol.c      ****  *    [in] pad      - Character to pad any unused positions 
 281:consol.c      ****  *    [in] number   - Signed number to print 
 282:consol.c      ****  *
 283:consol.c      ****  ****************************************************************************/
 284:consol.c      **** void
 285:consol.c      **** consolSendNumber(unsigned char base,
 286:consol.c      ****                  unsigned char noDigits,
 287:consol.c      ****                  unsigned char sign,
 288:consol.c      ****                  char          pad,
 289:consol.c      ****                  int           number)
 290:consol.c      **** {
 253              		.loc 1 290 0
 254              		@ Function supports interworking.
 255              		@ args = 4, pretend = 0, frame = 32
 256              		@ frame_needed = 0, uses_anonymous_args = 0
 257              	.LVL11:
 258 0164 F04F2DE9 		stmfd	sp!, {r4, r5, r6, r7, r8, r9, sl, fp, lr}
 259              	.LCFI3:
 260 0168 20D04DE2 		sub	sp, sp, #32
 261              	.LCFI4:
 262              		.loc 1 290 0
 263 016c 44809DE5 		ldr	r8, [sp, #68]
 291:consol.c      ****   static char    hexChars[16] = "0123456789ABCDEF";
 292:consol.c      ****   char          *pBuf;
 293:consol.c      ****   char           buf[32];
 294:consol.c      ****   unsigned int   numberAbs;
 295:consol.c      ****   unsigned char  count;
 296:consol.c      **** 
 297:consol.c      ****   // prepare negative number
 298:consol.c      ****   if(sign && (number < 0))
 264              		.loc 1 298 0
ARM GAS  /cygdrive/c/Users/embedded/AppData/Local/Temp/ccelz1ts.s 			page 11


 265 0170 FF2012E2 		ands	r2, r2, #255
 266 0174 00A0A003 		moveq	sl, #0
 267 0178 01A0A013 		movne	sl, #1
 268 017c A89FA0E1 		mov	r9, r8, lsr #31
 269 0180 09001AE1 		tst	sl, r9
 299:consol.c      ****     numberAbs = -number;
 270              		.loc 1 299 0
 271 0184 00406812 		rsbne	r4, r8, #0
 272              	.LVL12:
 300:consol.c      ****   else
 301:consol.c      ****     numberAbs = number;
 273              		.loc 1 301 0
 274 0188 0840A001 		moveq	r4, r8
 275              		.loc 1 290 0
 276 018c FF7000E2 		and	r7, r0, #255
 277 0190 FF1001E2 		and	r1, r1, #255
 302:consol.c      **** 
 303:consol.c      ****   // setup little string buffer
 304:consol.c      ****   count = (noDigits - 1) - (sign ? 1 : 0);
 278              		.loc 1 304 0
 279 0194 000052E3 		cmp	r2, #0
 280 0198 0120A001 		moveq	r2, r1
 281 019c 01204112 		subne	r2, r1, #1
 282              	.LVL13:
 305:consol.c      ****   pBuf = buf + sizeof(buf);
 306:consol.c      ****   *--pBuf = '\0';
 307:consol.c      **** 
 308:consol.c      ****   // force calculation of first digit
 309:consol.c      ****   // (to prevent zero from not printing at all!!!)
 310:consol.c      ****   *--pBuf = hexChars[(numberAbs % base)];
 283              		.loc 1 310 0
 284 01a0 0400A0E1 		mov	r0, r4
 285              	.LVL14:
 286 01a4 0710A0E1 		mov	r1, r7
 287              	.LVL15:
 288              		.loc 1 290 0
 289 01a8 FFB003E2 		and	fp, r3, #255
 290              		.loc 1 306 0
 291 01ac 0030A0E3 		mov	r3, #0
 292              	.LVL16:
 293 01b0 1F30CDE5 		strb	r3, [sp, #31]
 294              		.loc 1 304 0
 295 01b4 FF6002E2 		and	r6, r2, #255
 296              		.loc 1 310 0
 297 01b8 FEFFFFEB 		bl	__umodsi3
 298 01bc B4309FE5 		ldr	r3, .L64
 299 01c0 0030D3E7 		ldrb	r3, [r3, r0]	@ zero_extendqisi2
 311:consol.c      ****   numberAbs /= base;
 300              		.loc 1 311 0
 301 01c4 0710A0E1 		mov	r1, r7
 302 01c8 0400A0E1 		mov	r0, r4
 303              		.loc 1 310 0
 304 01cc 1E30CDE5 		strb	r3, [sp, #30]
 305              		.loc 1 311 0
 306 01d0 FEFFFFEB 		bl	__udivsi3
 307 01d4 1E408DE2 		add	r4, sp, #30
 308              	.LVL17:
ARM GAS  /cygdrive/c/Users/embedded/AppData/Local/Temp/ccelz1ts.s 			page 12


 309 01d8 0050A0E1 		mov	r5, r0
 310              	.LVL18:
 311 01dc 0F0000EA 		b	.L50
 312              	.LVL19:
 313              	.L51:
 312:consol.c      **** 
 313:consol.c      ****   // calculate remaining digits
 314:consol.c      ****   while(count--)
 315:consol.c      ****   {
 316:consol.c      ****     if(numberAbs != 0)
 314              		.loc 1 316 0
 315 01e0 000055E3 		cmp	r5, #0
 316 01e4 013044E2 		sub	r3, r4, #1
 317:consol.c      ****     {
 318:consol.c      ****       //calculate next digit
 319:consol.c      ****       *--pBuf = hexChars[(numberAbs % base)];
 317              		.loc 1 319 0
 318 01e8 0340A0E1 		mov	r4, r3
 320:consol.c      ****       numberAbs /= base;
 321:consol.c      ****     }
 322:consol.c      ****     else
 323:consol.c      ****       // no more digits left, pad out to desired length
 324:consol.c      ****       *--pBuf = pad;
 319              		.loc 1 324 0
 320 01ec 0340A001 		moveq	r4, r3
 321 01f0 00B0C405 		streqb	fp, [r4, #0]
 322              		.loc 1 316 0
 323 01f4 0700000A 		beq	.L54
 324              	.LVL20:
 325              		.loc 1 319 0
 326 01f8 FEFFFFEB 		bl	__umodsi3
 327 01fc 74309FE5 		ldr	r3, .L64
 328 0200 0030D3E7 		ldrb	r3, [r3, r0]	@ zero_extendqisi2
 329              		.loc 1 320 0
 330 0204 0710A0E1 		mov	r1, r7
 331 0208 0500A0E1 		mov	r0, r5
 332              		.loc 1 319 0
 333 020c 0030C4E5 		strb	r3, [r4, #0]
 334              		.loc 1 320 0
 335 0210 FEFFFFEB 		bl	__udivsi3
 336 0214 0050A0E1 		mov	r5, r0
 337              	.LVL21:
 338              	.L54:
 339              		.loc 1 324 0
 340 0218 013046E2 		sub	r3, r6, #1
 341 021c FF6003E2 		and	r6, r3, #255
 342              	.L50:
 343              		.loc 1 314 0
 344 0220 010056E3 		cmp	r6, #1
 345              		.loc 1 319 0
 346 0224 0500A0E1 		mov	r0, r5
 347 0228 0710A0E1 		mov	r1, r7
 348              		.loc 1 314 0
 349 022c EBFFFF1A 		bne	.L51
 350              	.LVL22:
 325:consol.c      ****   }
 326:consol.c      **** 
ARM GAS  /cygdrive/c/Users/embedded/AppData/Local/Temp/ccelz1ts.s 			page 13


 327:consol.c      ****   // apply signed notation if requested
 328:consol.c      ****   if(sign)
 351              		.loc 1 328 0
 352 0230 00005AE3 		cmp	sl, #0
 353 0234 0A00000A 		beq	.L56
 329:consol.c      ****   {
 330:consol.c      ****     if(number < 0)
 354              		.loc 1 330 0
 355 0238 000059E3 		cmp	r9, #0
 331:consol.c      ****       *--pBuf = '-';
 356              		.loc 1 331 0
 357 023c 2D30A013 		movne	r3, #45
 358 0240 01306415 		strneb	r3, [r4, #-1]!
 359              		.loc 1 330 0
 360 0244 0600001A 		bne	.L56
 361 0248 013044E2 		sub	r3, r4, #1
 332:consol.c      ****     else if(number > 0)
 362              		.loc 1 332 0
 363 024c 000058E3 		cmp	r8, #0
 333:consol.c      ****        *--pBuf = '+';
 364              		.loc 1 333 0
 365 0250 0340A011 		movne	r4, r3
 334:consol.c      ****     else
 335:consol.c      ****        *--pBuf = ' ';
 366              		.loc 1 335 0
 367 0254 0340A001 		moveq	r4, r3
 368              		.loc 1 333 0
 369 0258 2B30A013 		movne	r3, #43
 370              		.loc 1 335 0
 371 025c 2030A003 		moveq	r3, #32
 372 0260 0030C4E5 		strb	r3, [r4, #0]
 373              	.L56:
 336:consol.c      ****   }
 337:consol.c      **** 
 338:consol.c      ****   // print the string right-justified
 339:consol.c      ****   consolSendString(pBuf);
 374              		.loc 1 339 0
 375 0264 0400A0E1 		mov	r0, r4
 376              	.LVL23:
 377 0268 FEFFFFEB 		bl	consolSendString
 340:consol.c      **** }
 378              		.loc 1 340 0
 379 026c 20D08DE2 		add	sp, sp, #32
 380 0270 F04FBDE8 		ldmfd	sp!, {r4, r5, r6, r7, r8, r9, sl, fp, lr}
 381 0274 1EFF2FE1 		bx	lr
 382              	.L65:
 383              		.align	2
 384              	.L64:
 385 0278 00000000 		.word	hexChars.2029
 386              	.LFE8:
 387              		.size	consolSendNumber, .-consolSendNumber
 388              		.align	2
 389              		.global	consolGetCh
 390              		.type	consolGetCh, %function
 391              	consolGetCh:
 392              	.LFB10:
 341:consol.c      **** 
ARM GAS  /cygdrive/c/Users/embedded/AppData/Local/Temp/ccelz1ts.s 			page 14


 342:consol.c      **** #if (CONSOLE_API_PRINTF == 1)  //OWN_PRINTF
 343:consol.c      **** /*****************************************************************************
 344:consol.c      ****  *
 345:consol.c      ****  * Description:
 346:consol.c      ****  *    Simple implementation of printf 
 347:consol.c      ****  *
 348:consol.c      ****  * Params:
 349:consol.c      ****  *    [in] fmt - Format string that specifies what to be printed 
 350:consol.c      ****  *    [in] ... - Variable number of parameters to match format string 
 351:consol.c      ****  *
 352:consol.c      ****  ****************************************************************************/
 353:consol.c      **** void
 354:consol.c      **** simplePrintf(const char * fmt,
 355:consol.c      ****              ...          )
 356:consol.c      **** {
 357:consol.c      **** 	va_list ap;
 358:consol.c      **** 
 359:consol.c      **** 	va_start(ap, fmt);
 360:consol.c      **** 	simplePrint(consolSendCh, fmt, ap);
 361:consol.c      **** 	va_end(ap);
 362:consol.c      **** }
 363:consol.c      **** #endif
 364:consol.c      **** 
 365:consol.c      **** 
 366:consol.c      **** #if (CONSOLE_API_SCANF == 1)  //SIMPLE
 367:consol.c      **** 
 368:consol.c      **** /*****************************************************************************
 369:consol.c      ****  *
 370:consol.c      ****  * Description:
 371:consol.c      ****  *    Wait (blocking call) for a character to be received. 
 372:consol.c      ****  *
 373:consol.c      ****  * Returns:
 374:consol.c      ****  *    char - Received character
 375:consol.c      ****  *
 376:consol.c      ****  ****************************************************************************/
 377:consol.c      **** char
 378:consol.c      **** consolGetCh(void)
 379:consol.c      **** {
 393              		.loc 1 379 0
 394              		@ Function supports interworking.
 395              		@ args = 0, pretend = 0, frame = 0
 396              		@ frame_needed = 0, uses_anonymous_args = 0
 397              		@ link register save eliminated.
 398              		@ lr needed for prologue
 399              	.L68:
 380:consol.c      ****   while(!(UART_LSR & (0x01<<0)))
 400              		.loc 1 380 0
 401 027c 14209FE5 		ldr	r2, .L73
 402 0280 143092E5 		ldr	r3, [r2, #20]
 403 0284 010013E3 		tst	r3, #1
 404 0288 FBFFFF0A 		beq	.L68
 381:consol.c      ****     ;
 382:consol.c      ****   return UART_RBR;
 405              		.loc 1 382 0
 406 028c 000092E5 		ldr	r0, [r2, #0]
 407 0290 FF0000E2 		and	r0, r0, #255
 383:consol.c      **** }
ARM GAS  /cygdrive/c/Users/embedded/AppData/Local/Temp/ccelz1ts.s 			page 15


 408              		.loc 1 383 0
 409 0294 1EFF2FE1 		bx	lr
 410              	.L74:
 411              		.align	2
 412              	.L73:
 413 0298 00C000E0 		.word	-536821760
 414              	.LFE10:
 415              		.size	consolGetCh, .-consolGetCh
 416              		.align	2
 417              		.global	consolGetChar
 418              		.type	consolGetChar, %function
 419              	consolGetChar:
 420              	.LFB11:
 384:consol.c      **** 
 385:consol.c      **** /*****************************************************************************
 386:consol.c      ****  *
 387:consol.c      ****  * Description:
 388:consol.c      ****  *    Check (non-blocking call) if a character has been received. 
 389:consol.c      ****  *
 390:consol.c      ****  * Params:
 391:consol.c      ****  *    [inout] pChar - pointer to where to place received character
 392:consol.c      ****  *
 393:consol.c      ****  * Returns:
 394:consol.c      ****  *    char - TRUE if character has been received (placed at pointed location)
 395:consol.c      ****  *           FALSE if no character has been received.
 396:consol.c      ****  *
 397:consol.c      ****  ****************************************************************************/
 398:consol.c      **** char
 399:consol.c      **** consolGetChar(char *pChar)
 400:consol.c      **** {
 421              		.loc 1 400 0
 422              		@ Function supports interworking.
 423              		@ args = 0, pretend = 0, frame = 0
 424              		@ frame_needed = 0, uses_anonymous_args = 0
 425              		@ link register save eliminated.
 426              	.LVL24:
 401:consol.c      ****   if((UART_LSR & 0x01) != 0x00)
 427              		.loc 1 401 0
 428 029c 18209FE5 		ldr	r2, .L80
 429 02a0 143092E5 		ldr	r3, [r2, #20]
 430 02a4 013013E2 		ands	r3, r3, #1
 402:consol.c      ****   {
 403:consol.c      ****     *pChar = UART_RBR;
 431              		.loc 1 403 0
 432 02a8 00309215 		ldrne	r3, [r2, #0]
 433 02ac 0030C015 		strneb	r3, [r0, #0]
 434 02b0 0130A013 		movne	r3, #1
 404:consol.c      ****     return 1;
 405:consol.c      ****   }
 406:consol.c      ****   return 0;
 407:consol.c      **** }
 435              		.loc 1 407 0
 436 02b4 0300A0E1 		mov	r0, r3
 437              	.LVL25:
 438              		.loc 1 400 0
 439              		@ lr needed for prologue
 440              		.loc 1 407 0
ARM GAS  /cygdrive/c/Users/embedded/AppData/Local/Temp/ccelz1ts.s 			page 16


 441 02b8 1EFF2FE1 		bx	lr
 442              	.L81:
 443              		.align	2
 444              	.L80:
 445 02bc 00C000E0 		.word	-536821760
 446              	.LFE11:
 447              		.size	consolGetChar, .-consolGetChar
 448              		.section	.rodata.str1.4
 449 0011 000000   		.align	2
 450              	.LC1:
 451 0014 08200800 		.ascii	"\010 \010\000"
 452              		.text
 453              		.align	2
 454              		.global	consolGetString
 455              		.type	consolGetString, %function
 456              	consolGetString:
 457              	.LFB12:
 408:consol.c      **** 
 409:consol.c      **** /*****************************************************************************
 410:consol.c      ****  *
 411:consol.c      ****  * Description:
 412:consol.c      ****  *    Receive (blocking call) a string (end with '\r'). 
 413:consol.c      ****  *
 414:consol.c      ****  * Params:
 415:consol.c      ****  *    [inout] pString - pointer to return the received string
 416:consol.c      ****  *
 417:consol.c      ****  ****************************************************************************/
 418:consol.c      **** void
 419:consol.c      **** consolGetString(char *pString)
 420:consol.c      **** {
 458              		.loc 1 420 0
 459              		@ Function supports interworking.
 460              		@ args = 0, pretend = 0, frame = 0
 461              		@ frame_needed = 0, uses_anonymous_args = 0
 462              	.LVL26:
 463 02c0 30402DE9 		stmfd	sp!, {r4, r5, lr}
 464              	.LCFI5:
 465              		.loc 1 420 0
 466 02c4 0040A0E1 		mov	r4, r0
 467              	.LVL27:
 468 02c8 0050A0E1 		mov	r5, r0
 469              	.LVL28:
 470 02cc 090000EA 		b	.L96
 471              	.LVL29:
 472              	.L84:
 421:consol.c      ****   char *pString2;
 422:consol.c      ****   char rxChar;
 423:consol.c      **** 
 424:consol.c      ****   pString2 = pString;
 425:consol.c      ****   while((rxChar = consolGetCh()) != '\r')
 426:consol.c      ****   {
 427:consol.c      ****     if (rxChar == '\b')
 473              		.loc 1 427 0
 474 02d0 080053E3 		cmp	r3, #8
 475 02d4 0500001A 		bne	.L85
 476              	.LVL30:
 428:consol.c      ****     {
ARM GAS  /cygdrive/c/Users/embedded/AppData/Local/Temp/ccelz1ts.s 			page 17


 429:consol.c      ****       if ((int)pString2 < (int)pString)
 477              		.loc 1 429 0
 478 02d8 040055E1 		cmp	r5, r4
 430:consol.c      ****       {
 431:consol.c      ****         consolSendString("\b \b");
 479              		.loc 1 431 0
 480 02dc 4C009FE5 		ldr	r0, .L97
 481              		.loc 1 429 0
 482 02e0 040000AA 		bge	.L96
 483              		.loc 1 431 0
 484 02e4 FEFFFFEB 		bl	consolSendString
 485              	.LVL31:
 432:consol.c      ****         pString--;
 486              		.loc 1 432 0
 487 02e8 014044E2 		sub	r4, r4, #1
 488 02ec 010000EA 		b	.L96
 489              	.LVL32:
 490              	.L85:
 433:consol.c      ****       }
 434:consol.c      ****     }
 435:consol.c      ****     else
 436:consol.c      ****     {
 437:consol.c      ****       *pString++ = rxChar;
 491              		.loc 1 437 0
 492 02f0 0130C4E4 		strb	r3, [r4], #1
 438:consol.c      ****       consolSendCh(rxChar);
 493              		.loc 1 438 0
 494 02f4 FEFFFFEB 		bl	consolSendCh
 495              	.LVL33:
 496              	.L96:
 497              	.LBB12:
 498              	.LBB13:
 499              		.loc 1 380 0
 500 02f8 34209FE5 		ldr	r2, .L97+4
 501 02fc 143092E5 		ldr	r3, [r2, #20]
 502              	.LVL34:
 503 0300 010013E3 		tst	r3, #1
 504 0304 FBFFFF0A 		beq	.L96
 505              	.LVL35:
 506              		.loc 1 382 0
 507 0308 003092E5 		ldr	r3, [r2, #0]
 508              	.LBE13:
 509              	.LBE12:
 510              		.loc 1 425 0
 511 030c FF3003E2 		and	r3, r3, #255
 512              	.LVL36:
 513 0310 0D0053E3 		cmp	r3, #13
 514              		.loc 1 438 0
 515 0314 0300A0E1 		mov	r0, r3
 516              	.LVL37:
 517              		.loc 1 425 0
 518 0318 ECFFFF1A 		bne	.L84
 519              	.LVL38:
 439:consol.c      ****     }
 440:consol.c      ****   }
 441:consol.c      ****   *pString = '\0';
 520              		.loc 1 441 0
ARM GAS  /cygdrive/c/Users/embedded/AppData/Local/Temp/ccelz1ts.s 			page 18


 521 031c 0030A0E3 		mov	r3, #0
 442:consol.c      ****   consolSendCh('\n');
 522              		.loc 1 442 0
 523 0320 0A00A0E3 		mov	r0, #10
 524              	.LVL39:
 525              		.loc 1 441 0
 526 0324 0030C4E5 		strb	r3, [r4, #0]
 443:consol.c      **** }
 527              		.loc 1 443 0
 528 0328 3040BDE8 		ldmfd	sp!, {r4, r5, lr}
 529              		.loc 1 442 0
 530 032c FEFFFFEA 		b	consolSendCh
 531              	.L98:
 532              		.align	2
 533              	.L97:
 534 0330 14000000 		.word	.LC1
 535 0334 00C000E0 		.word	-536821760
 536              	.LFE12:
 537              		.size	consolGetString, .-consolGetString
 538              		.align	2
 539              		.global	simplePrintf
 540              		.type	simplePrintf, %function
 541              	simplePrintf:
 542              	.LFB9:
 543              		.loc 1 356 0
 544              		@ Function supports interworking.
 545              		@ args = 4, pretend = 16, frame = 4
 546              		@ frame_needed = 0, uses_anonymous_args = 1
 547              	.LVL40:
 548 0338 0F002DE9 		stmfd	sp!, {r0, r1, r2, r3}
 549              	.LCFI6:
 550 033c 70402DE9 		stmfd	sp!, {r4, r5, r6, lr}
 551              	.LCFI7:
 552 0340 04D04DE2 		sub	sp, sp, #4
 553              	.LCFI8:
 554              		.loc 1 359 0
 555 0344 18308DE2 		add	r3, sp, #24
 556              		.loc 1 356 0
 557 0348 14609DE5 		ldr	r6, [sp, #20]
 558              		.loc 1 360 0
 559 034c 0350A0E1 		mov	r5, r3
 560              	.LVL41:
 561              		.loc 1 359 0
 562 0350 00308DE5 		str	r3, [sp, #0]
 563              	.LVL42:
 564 0354 020000EA 		b	.L138
 565              	.LVL43:
 566              	.L101:
 567              	.LBB16:
 568              	.LBB17:
 569              		.loc 1 106 0
 570 0358 000050E3 		cmp	r0, #0
 571 035c 5000000A 		beq	.L128
 572              	.LVL44:
 573              	.L136:
 574              		.loc 1 108 0
 575 0360 FEFFFFEB 		bl	consolSendCh
ARM GAS  /cygdrive/c/Users/embedded/AppData/Local/Temp/ccelz1ts.s 			page 19


 576              	.LVL45:
 577              	.L138:
 578              		.loc 1 104 0
 579 0364 0100D6E4 		ldrb	r0, [r6], #1	@ zero_extendqisi2
 580              	.LVL46:
 581 0368 250050E3 		cmp	r0, #37
 582 036c F9FFFF1A 		bne	.L101
 583 0370 0030A0E3 		mov	r3, #0
 584              	.LVL47:
 585              	.L105:
 586              		.loc 1 114 0
 587 0374 0140D6E4 		ldrb	r4, [r6], #1	@ zero_extendqisi2
 588              	.LVL48:
 589 0378 6F0054E3 		cmp	r4, #111
 590 037c 3000000A 		beq	.L110
 591 0380 0A00008A 		bhi	.L115
 592 0384 640054E3 		cmp	r4, #100
 593 0388 2100000A 		beq	.L108
 594 038c 0400008A 		bhi	.L116
 595 0390 000054E3 		cmp	r4, #0
 596 0394 4200000A 		beq	.L128
 597 0398 630054E3 		cmp	r4, #99
 598 039c 3B00001A 		bne	.L106
 599 03a0 0F0000EA 		b	.L107
 600              	.L116:
 601 03a4 6C0054E3 		cmp	r4, #108
 602 03a8 3800001A 		bne	.L106
 603 03ac 0A0000EA 		b	.L109
 604              	.L115:
 605 03b0 730054E3 		cmp	r4, #115
 606 03b4 0E00000A 		beq	.L112
 607 03b8 0200008A 		bhi	.L117
 608 03bc 700054E3 		cmp	r4, #112
 609 03c0 3200001A 		bne	.L106
 610 03c4 290000EA 		b	.L111
 611              	.L117:
 612 03c8 750054E3 		cmp	r4, #117
 613 03cc 2300000A 		beq	.L113
 614 03d0 780054E3 		cmp	r4, #120
 615 03d4 2D00001A 		bne	.L106
 616 03d8 280000EA 		b	.L114
 617              	.L109:
 618 03dc 0130A0E3 		mov	r3, #1
 619 03e0 E3FFFFEA 		b	.L105
 620              	.L107:
 621              		.loc 1 125 0
 622 03e4 000095E5 		ldr	r0, [r5, #0]
 623              	.LVL49:
 624 03e8 7F0000E2 		and	r0, r0, #127
 625 03ec FEFFFFEB 		bl	consolSendCh
 626              	.LVL50:
 627 03f0 170000EA 		b	.L135
 628              	.LVL51:
 629              	.L112:
 630              		.loc 1 129 0
 631 03f4 004095E5 		ldr	r4, [r5, #0]
 632              	.LVL52:
ARM GAS  /cygdrive/c/Users/embedded/AppData/Local/Temp/ccelz1ts.s 			page 20


 633 03f8 000000EA 		b	.L118
 634              	.LVL53:
 635              	.L119:
 636              		.loc 1 131 0
 637 03fc FEFFFFEB 		bl	consolSendCh
 638              	.LVL54:
 639              	.L118:
 640              		.loc 1 130 0
 641 0400 0130D4E4 		ldrb	r3, [r4], #1	@ zero_extendqisi2
 642              	.LVL55:
 643 0404 000053E2 		subs	r0, r3, #0
 644              	.LVL56:
 645 0408 FBFFFF1A 		bne	.L119
 646              	.LVL57:
 647              		.loc 1 129 0
 648 040c 045085E2 		add	r5, r5, #4
 649 0410 D3FFFFEA 		b	.L138
 650              	.LVL58:
 651              	.L108:
 652              		.loc 1 135 0
 653 0414 004095E5 		ldr	r4, [r5, #0]
 654              	.LVL59:
 655              		.loc 1 136 0
 656 0418 000054E3 		cmp	r4, #0
 657 041c 045085E2 		add	r5, r5, #4
 658              	.LVL60:
 659 0420 020000AA 		bge	.L124
 660              		.loc 1 138 0
 661 0424 2D00A0E3 		mov	r0, #45
 662              	.LVL61:
 663 0428 FEFFFFEB 		bl	consolSendCh
 664              	.LVL62:
 665              		.loc 1 139 0
 666 042c 004064E2 		rsb	r4, r4, #0
 667              	.LVL63:
 668              	.L124:
 669              		.loc 1 141 0
 670 0430 0410A0E1 		mov	r1, r4
 671 0434 78009FE5 		ldr	r0, .L139
 672              	.LVL64:
 673 0438 0A20A0E3 		mov	r2, #10
 674 043c EFFEFFEB 		bl	printNum
 675              	.LVL65:
 676 0440 C7FFFFEA 		b	.L138
 677              	.LVL66:
 678              	.L110:
 679              		.loc 1 146 0
 680 0444 001095E5 		ldr	r1, [r5, #0]
 681 0448 64009FE5 		ldr	r0, .L139
 682              	.LVL67:
 683 044c 0820A0E3 		mov	r2, #8
 684              	.L137:
 685 0450 EAFEFFEB 		bl	printNum
 686              	.LVL68:
 687              	.L135:
 688              		.loc 1 145 0
 689 0454 043085E2 		add	r3, r5, #4
ARM GAS  /cygdrive/c/Users/embedded/AppData/Local/Temp/ccelz1ts.s 			page 21


 690              	.LVL69:
 691              		.loc 1 146 0
 692 0458 0350A0E1 		mov	r5, r3
 693 045c C0FFFFEA 		b	.L138
 694              	.LVL70:
 695              	.L113:
 696              		.loc 1 151 0
 697 0460 001095E5 		ldr	r1, [r5, #0]
 698 0464 48009FE5 		ldr	r0, .L139
 699              	.LVL71:
 700 0468 0A20A0E3 		mov	r2, #10
 701 046c F7FFFFEA 		b	.L137
 702              	.LVL72:
 703              	.L111:
 704              		.loc 1 155 0
 705 0470 3000A0E3 		mov	r0, #48
 706              	.LVL73:
 707 0474 FEFFFFEB 		bl	consolSendCh
 708              	.LVL74:
 709              		.loc 1 156 0
 710 0478 7800A0E3 		mov	r0, #120
 711 047c FEFFFFEB 		bl	consolSendCh
 712              	.LVL75:
 713              	.L114:
 714              		.loc 1 162 0
 715 0480 001095E5 		ldr	r1, [r5, #0]
 716 0484 28009FE5 		ldr	r0, .L139
 717              	.LVL76:
 718 0488 1020A0E3 		mov	r2, #16
 719 048c EFFFFFEA 		b	.L137
 720              	.LVL77:
 721              	.L106:
 722              		.loc 1 167 0
 723 0490 000053E3 		cmp	r3, #0
 724              		.loc 1 168 0
 725 0494 6C00A013 		movne	r0, #108
 726              	.LVL78:
 727 0498 FEFFFF1B 		blne	consolSendCh
 728              	.LVL79:
 729              	.L126:
 730              		.loc 1 169 0
 731 049c 0400A0E1 		mov	r0, r4
 732              	.LVL80:
 733 04a0 AEFFFFEA 		b	.L136
 734              	.LVL81:
 735              	.L128:
 736              	.LBE17:
 737              	.LBE16:
 738              		.loc 1 362 0
 739 04a4 04D08DE2 		add	sp, sp, #4
 740 04a8 7040BDE8 		ldmfd	sp!, {r4, r5, r6, lr}
 741 04ac 10D08DE2 		add	sp, sp, #16
 742 04b0 1EFF2FE1 		bx	lr
 743              	.L140:
 744              		.align	2
 745              	.L139:
 746 04b4 00000000 		.word	consolSendCh
ARM GAS  /cygdrive/c/Users/embedded/AppData/Local/Temp/ccelz1ts.s 			page 22


 747              	.LFE9:
 748              		.size	simplePrintf, .-simplePrintf
 749              		.align	2
 750              		.global	consolGetIntNum
 751              		.type	consolGetIntNum, %function
 752              	consolGetIntNum:
 753              	.LFB13:
 444:consol.c      **** 
 445:consol.c      **** /*****************************************************************************
 446:consol.c      ****  *
 447:consol.c      ****  * Description:
 448:consol.c      ****  *    Receive (blocking call) a number (end with '\r').
 449:consol.c      ****  *    Accepts hexadecimal (radix 16) and integer (radix 10) numbers.
 450:consol.c      ****  *
 451:consol.c      ****  * Returns:
 452:consol.c      ****  *    int - the received number
 453:consol.c      ****  *
 454:consol.c      ****  ****************************************************************************/
 455:consol.c      **** int
 456:consol.c      **** consolGetIntNum(void)
 457:consol.c      **** {
 754              		.loc 1 457 0
 755              		@ Function supports interworking.
 756              		@ args = 0, pretend = 0, frame = 32
 757              		@ frame_needed = 0, uses_anonymous_args = 0
 758 04b8 70402DE9 		stmfd	sp!, {r4, r5, r6, lr}
 759              	.LCFI9:
 760 04bc 20D04DE2 		sub	sp, sp, #32
 761              	.LCFI10:
 458:consol.c      ****   char  abStr[30];
 459:consol.c      ****   char *pString = abStr;
 460:consol.c      ****   int   wBase=10;
 461:consol.c      ****   int   wMinus=0;
 462:consol.c      ****   int   wLastIndex;
 463:consol.c      ****   int   wResult=0;
 464:consol.c      ****   int   wI;
 465:consol.c      ****         
 466:consol.c      ****   consolGetString(pString);
 762              		.loc 1 466 0
 763 04c0 02408DE2 		add	r4, sp, #2
 764 04c4 0400A0E1 		mov	r0, r4
 765 04c8 FEFFFFEB 		bl	consolGetString
 467:consol.c      ****         
 468:consol.c      ****   if(pString[0] == '-')
 766              		.loc 1 468 0
 767 04cc 0230DDE5 		ldrb	r3, [sp, #2]	@ zero_extendqisi2
 768 04d0 2D0053E3 		cmp	r3, #45
 769 04d4 01408402 		addeq	r4, r4, #1
 770              	.LVL82:
 469:consol.c      ****   {
 470:consol.c      ****     wMinus = 1;
 471:consol.c      ****     pString++;
 472:consol.c      ****   }
 473:consol.c      **** 
 474:consol.c      ****   if(pString[0] == '0' && (pString[1] == 'x' || pString[1] == 'X'))
 771              		.loc 1 474 0
 772 04d8 0030D4E5 		ldrb	r3, [r4, #0]	@ zero_extendqisi2
ARM GAS  /cygdrive/c/Users/embedded/AppData/Local/Temp/ccelz1ts.s 			page 23


 773              		.loc 1 468 0
 774 04dc 0160A003 		moveq	r6, #1
 775              	.LVL83:
 776 04e0 0060A013 		movne	r6, #0
 777              		.loc 1 474 0
 778 04e4 300053E3 		cmp	r3, #48
 779 04e8 0500001A 		bne	.L145
 780 04ec 0130D4E5 		ldrb	r3, [r4, #1]	@ zero_extendqisi2
 781 04f0 580053E3 		cmp	r3, #88
 782 04f4 78005313 		cmpne	r3, #120
 475:consol.c      ****   {
 476:consol.c      ****     wBase = 16;
 477:consol.c      ****     pString += 2;
 783              		.loc 1 477 0
 784 04f8 02408402 		addeq	r4, r4, #2
 785 04fc 1050A003 		moveq	r5, #16
 786              	.LVL84:
 787              		.loc 1 474 0
 788 0500 0000000A 		beq	.L148
 789              	.L145:
 790              		.loc 1 477 0
 791 0504 0A50A0E3 		mov	r5, #10
 792              	.L148:
 478:consol.c      ****   }
 479:consol.c      **** 
 480:consol.c      ****   wLastIndex = strlen(pString) - 1;
 793              		.loc 1 480 0
 794 0508 0400A0E1 		mov	r0, r4
 795 050c FEFFFFEB 		bl	strlen
 796 0510 01C040E2 		sub	ip, r0, #1
 797              	.LVL85:
 481:consol.c      ****   if(pString[wLastIndex] == 'h' || pString[wLastIndex] == 'H')
 798              		.loc 1 481 0
 799 0514 0C30D4E7 		ldrb	r3, [r4, ip]	@ zero_extendqisi2
 800 0518 480053E3 		cmp	r3, #72
 801 051c 68005313 		cmpne	r3, #104
 802 0520 0500001A 		bne	.L149
 482:consol.c      ****   {
 483:consol.c      ****     wBase = 16;
 484:consol.c      ****     pString[wLastIndex] = 0;
 803              		.loc 1 484 0
 804 0524 0030A0E3 		mov	r3, #0
 805 0528 0C30C4E7 		strb	r3, [r4, ip]
 485:consol.c      ****     wLastIndex--;
 806              		.loc 1 485 0
 807 052c 01C04CE2 		sub	ip, ip, #1
 808              	.L151:
 809 0530 0000A0E3 		mov	r0, #0
 810              	.LVL86:
 811 0534 00E0A0E1 		mov	lr, r0
 812              	.LVL87:
 813 0538 0F0000EA 		b	.L152
 814              	.LVL88:
 815              	.L149:
 486:consol.c      ****   }
 487:consol.c      **** 
 488:consol.c      ****   if(wBase == 10)
ARM GAS  /cygdrive/c/Users/embedded/AppData/Local/Temp/ccelz1ts.s 			page 24


 816              		.loc 1 488 0
 817 053c 0A0055E3 		cmp	r5, #10
 818 0540 FAFFFF1A 		bne	.L151
 489:consol.c      ****   {
 490:consol.c      ****     wResult = atoi(pString);
 819              		.loc 1 490 0
 820 0544 0400A0E1 		mov	r0, r4
 821 0548 FEFFFFEB 		bl	atoi
 822              	.LVL89:
 823 054c 0C0000EA 		b	.L166
 824              	.LVL90:
 825              	.L156:
 491:consol.c      ****     wResult = wMinus ? (-1*wResult):wResult;
 492:consol.c      ****   }
 493:consol.c      ****   else
 494:consol.c      ****   {
 495:consol.c      ****     for(wI=0; wI<=wLastIndex; wI++)
 496:consol.c      ****     {
 497:consol.c      ****       if(__isalpha(pString[wI]))
 826              		.loc 1 497 0
 827 0550 0420DEE7 		ldrb	r2, [lr, r4]	@ zero_extendqisi2
 828 0554 0012A0E1 		mov	r1, r0, asl #4
 829 0558 390052E3 		cmp	r2, #57
 498:consol.c      ****       {
 499:consol.c      ****         if(__isupper(pString[wI]))
 500:consol.c      ****           wResult = (wResult<<4) + pString[wI] - 'A' + 10;
 501:consol.c      ****         else
 502:consol.c      ****           wResult = (wResult<<4) + pString[wI] - 'a' + 10;
 503:consol.c      ****       }
 504:consol.c      ****       else
 505:consol.c      ****       {
 506:consol.c      ****         wResult = (wResult<<4) + pString[wI] - '0';
 830              		.loc 1 506 0
 831 055c 000282E0 		add	r0, r2, r0, asl #4
 832              	.LVL91:
 833 0560 30004092 		subls	r0, r0, #48
 834              	.LVL92:
 835              		.loc 1 497 0
 836 0564 0300009A 		bls	.L161
 837              		.loc 1 500 0
 838 0568 023081E0 		add	r3, r1, r2
 839              		.loc 1 499 0
 840 056c 200012E3 		tst	r2, #32
 841              		.loc 1 500 0
 842 0570 370043E2 		sub	r0, r3, #55
 843              		.loc 1 502 0
 844 0574 57004312 		subne	r0, r3, #87
 845              	.L161:
 846              		.loc 1 495 0
 847 0578 01E08EE2 		add	lr, lr, #1
 848              	.L152:
 849 057c 0C005EE1 		cmp	lr, ip
 850 0580 F2FFFFDA 		ble	.L156
 851              	.L166:
 507:consol.c      ****       }
 508:consol.c      ****     }
 509:consol.c      ****     wResult = wMinus ? (-1*wResult):wResult;
ARM GAS  /cygdrive/c/Users/embedded/AppData/Local/Temp/ccelz1ts.s 			page 25


 852              		.loc 1 509 0
 853 0584 000056E3 		cmp	r6, #0
 854 0588 00006012 		rsbne	r0, r0, #0
 855              	.LVL93:
 510:consol.c      ****   }
 511:consol.c      ****   return wResult;
 512:consol.c      **** }
 856              		.loc 1 512 0
 857 058c 20D08DE2 		add	sp, sp, #32
 858 0590 7040BDE8 		ldmfd	sp!, {r4, r5, r6, lr}
 859 0594 1EFF2FE1 		bx	lr
 860              	.LFE13:
 861              		.size	consolGetIntNum, .-consolGetIntNum
 862              		.align	2
 863              		.global	consolScanf
 864              		.type	consolScanf, %function
 865              	consolScanf:
 866              	.LFB14:
 513:consol.c      **** 
 514:consol.c      **** /*****************************************************************************
 515:consol.c      ****  *
 516:consol.c      ****  * Description:
 517:consol.c      ****  *    A simple implementation of the scanf()-function. 
 518:consol.c      ****  *
 519:consol.c      ****  * Params:
 520:consol.c      ****  *    [inout] pFmt - format string, accepts:
 521:consol.c      ****  *                   %s - string
 522:consol.c      ****  *                   %c - character
 523:consol.c      ****  *                   %i - integer
 524:consol.c      ****  *
 525:consol.c      ****  ****************************************************************************/
 526:consol.c      **** void
 527:consol.c      **** consolScanf(char *pFmt, ...)
 528:consol.c      **** {
 867              		.loc 1 528 0
 868              		@ Function supports interworking.
 869              		@ args = 4, pretend = 16, frame = 4
 870              		@ frame_needed = 0, uses_anonymous_args = 1
 871              	.LVL94:
 872 0598 0F002DE9 		stmfd	sp!, {r0, r1, r2, r3}
 873              	.LCFI11:
 874 059c 30402DE9 		stmfd	sp!, {r4, r5, lr}
 875              	.LCFI12:
 876 05a0 04D04DE2 		sub	sp, sp, #4
 877              	.LCFI13:
 878              		.loc 1 528 0
 879 05a4 10509DE5 		ldr	r5, [sp, #16]
 529:consol.c      ****   va_list pArg;
 530:consol.c      ****   char    character;
 531:consol.c      ****   int    *pInt;
 532:consol.c      ****   char   *pChar;
 533:consol.c      ****         
 534:consol.c      ****   va_start(pArg, pFmt);
 880              		.loc 1 534 0
 881 05a8 14308DE2 		add	r3, sp, #20
 882 05ac 00308DE5 		str	r3, [sp, #0]
 883              	.LVL95:
ARM GAS  /cygdrive/c/Users/embedded/AppData/Local/Temp/ccelz1ts.s 			page 26


 884 05b0 290000EA 		b	.L187
 885              	.LVL96:
 886              	.L169:
 535:consol.c      ****   while((character = *pFmt++) != '\0')
 536:consol.c      ****   {
 537:consol.c      ****     if(character != '%')continue;
 887              		.loc 1 537 0
 888 05b4 250053E3 		cmp	r3, #37
 889              		.loc 1 535 0
 890 05b8 015085E2 		add	r5, r5, #1
 891              		.loc 1 537 0
 892 05bc 2600001A 		bne	.L187
 538:consol.c      ****     switch(*pFmt)
 893              		.loc 1 538 0
 894 05c0 0030D5E5 		ldrb	r3, [r5, #0]	@ zero_extendqisi2
 895              	.LVL97:
 896 05c4 530053E3 		cmp	r3, #83
 897 05c8 0C00000A 		beq	.L173
 898 05cc 0400008A 		bhi	.L174
 899 05d0 430053E3 		cmp	r3, #67
 900 05d4 1600000A 		beq	.L171
 901 05d8 490053E3 		cmp	r3, #73
 902 05dc 1E00001A 		bne	.L187
 903 05e0 0C0000EA 		b	.L172
 904              	.L174:
 905 05e4 690053E3 		cmp	r3, #105
 906 05e8 0A00000A 		beq	.L172
 907 05ec 730053E3 		cmp	r3, #115
 908 05f0 0200000A 		beq	.L173
 909 05f4 630053E3 		cmp	r3, #99
 910 05f8 1700001A 		bne	.L187
 911 05fc 0C0000EA 		b	.L171
 912              	.L173:
 539:consol.c      ****     {
 540:consol.c      ****     case 's':
 541:consol.c      ****     case 'S':
 542:consol.c      ****       pChar = va_arg (pArg, char *);
 913              		.loc 1 542 0
 914 0600 00309DE5 		ldr	r3, [sp, #0]
 543:consol.c      ****       consolGetString(pChar);
 915              		.loc 1 543 0
 916 0604 000093E5 		ldr	r0, [r3, #0]
 917              		.loc 1 542 0
 918 0608 043083E2 		add	r3, r3, #4
 919 060c 00308DE5 		str	r3, [sp, #0]
 920              		.loc 1 543 0
 921 0610 FEFFFFEB 		bl	consolGetString
 922              	.LVL98:
 923 0614 100000EA 		b	.L187
 924              	.LVL99:
 925              	.L172:
 544:consol.c      ****       break;
 545:consol.c      ****     case 'i':
 546:consol.c      ****     case 'I':
 547:consol.c      ****       pInt  = va_arg (pArg, int *);
 926              		.loc 1 547 0
 927 0618 00309DE5 		ldr	r3, [sp, #0]
ARM GAS  /cygdrive/c/Users/embedded/AppData/Local/Temp/ccelz1ts.s 			page 27


 928 061c 042083E2 		add	r2, r3, #4
 929              	.LVL100:
 930 0620 004093E5 		ldr	r4, [r3, #0]
 931 0624 00208DE5 		str	r2, [sp, #0]
 548:consol.c      ****       *pInt = consolGetIntNum();
 932              		.loc 1 548 0
 933 0628 FEFFFFEB 		bl	consolGetIntNum
 934 062c 000084E5 		str	r0, [r4, #0]
 935 0630 090000EA 		b	.L187
 936              	.LVL101:
 937              	.L171:
 549:consol.c      ****       break;
 550:consol.c      ****     case 'c':
 551:consol.c      ****     case 'C':
 552:consol.c      ****       pChar  = va_arg (pArg, char *);
 938              		.loc 1 552 0
 939 0634 00209DE5 		ldr	r2, [sp, #0]
 940              	.LVL102:
 941 0638 043082E2 		add	r3, r2, #4
 942 063c 00308DE5 		str	r3, [sp, #0]
 943 0640 002092E5 		ldr	r2, [r2, #0]
 944              	.LVL103:
 945              	.L175:
 946              	.LBB20:
 947              	.LBB21:
 948              		.loc 1 380 0
 949 0644 2C109FE5 		ldr	r1, .L188
 950 0648 143091E5 		ldr	r3, [r1, #20]
 951 064c 010013E3 		tst	r3, #1
 952 0650 FBFFFF0A 		beq	.L175
 953              		.loc 1 382 0
 954 0654 003091E5 		ldr	r3, [r1, #0]
 955              	.LBE21:
 956              	.LBE20:
 553:consol.c      ****       *pChar = consolGetCh();
 957              		.loc 1 553 0
 958 0658 0030C2E5 		strb	r3, [r2, #0]
 959              	.LVL104:
 960              	.L187:
 961              		.loc 1 535 0
 962 065c 0030D5E5 		ldrb	r3, [r5, #0]	@ zero_extendqisi2
 963 0660 000053E3 		cmp	r3, #0
 964 0664 D2FFFF1A 		bne	.L169
 554:consol.c      ****       break;
 555:consol.c      ****     }
 556:consol.c      ****   }
 557:consol.c      ****   va_end(pArg);
 558:consol.c      **** }
 965              		.loc 1 558 0
 966 0668 04D08DE2 		add	sp, sp, #4
 967 066c 3040BDE8 		ldmfd	sp!, {r4, r5, lr}
 968 0670 10D08DE2 		add	sp, sp, #16
 969 0674 1EFF2FE1 		bx	lr
 970              	.L189:
 971              		.align	2
 972              	.L188:
 973 0678 00C000E0 		.word	-536821760
ARM GAS  /cygdrive/c/Users/embedded/AppData/Local/Temp/ccelz1ts.s 			page 28


 974              	.LFE14:
 975              		.size	consolScanf, .-consolScanf
 976              		.section	.rodata
 977              		.align	2
 978              		.type	hexChars.2029, %object
 979              		.size	hexChars.2029, 16
 980              	hexChars.2029:
 981 0000 30313233 		.ascii	"0123456789ABCDEF"
 981      34353637 
 981      38394142 
 981      43444546 
 982              		.section	.debug_frame,"",%progbits
 983              	.Lframe0:
 984 0000 0C000000 		.4byte	.LECIE0-.LSCIE0
 985              	.LSCIE0:
 986 0004 FFFFFFFF 		.4byte	0xffffffff
 987 0008 01       		.byte	0x1
 988 0009 00       		.ascii	"\000"
 989 000a 01       		.uleb128 0x1
 990 000b 7C       		.sleb128 -4
 991 000c 0E       		.byte	0xe
 992 000d 0C       		.byte	0xc
 993 000e 0D       		.uleb128 0xd
 994 000f 00       		.uleb128 0x0
 995              		.align	2
 996              	.LECIE0:
 997              	.LSFDE0:
 998 0010 1C000000 		.4byte	.LEFDE0-.LASFDE0
 999              	.LASFDE0:
 1000 0014 00000000 		.4byte	.Lframe0
 1001 0018 00000000 		.4byte	.LFB2
 1002 001c 84000000 		.4byte	.LFE2-.LFB2
 1003 0020 44       		.byte	0x4
 1004              		.4byte	.LCFI0-.LFB2
 1005 0021 0E       		.byte	0xe
 1006 0022 14       		.uleb128 0x14
 1007 0023 44       		.byte	0x4
 1008              		.4byte	.LCFI1-.LCFI0
 1009 0024 0E       		.byte	0xe
 1010 0025 48       		.uleb128 0x48
 1011 0026 8E       		.byte	0x8e
 1012 0027 01       		.uleb128 0x1
 1013 0028 87       		.byte	0x87
 1014 0029 02       		.uleb128 0x2
 1015 002a 86       		.byte	0x86
 1016 002b 03       		.uleb128 0x3
 1017 002c 85       		.byte	0x85
 1018 002d 04       		.uleb128 0x4
 1019 002e 84       		.byte	0x84
 1020 002f 05       		.uleb128 0x5
 1021              		.align	2
 1022              	.LEFDE0:
 1023              	.LSFDE2:
 1024 0030 0C000000 		.4byte	.LEFDE2-.LASFDE2
 1025              	.LASFDE2:
 1026 0034 00000000 		.4byte	.Lframe0
 1027 0038 84000000 		.4byte	.LFB4
ARM GAS  /cygdrive/c/Users/embedded/AppData/Local/Temp/ccelz1ts.s 			page 29


 1028 003c 50000000 		.4byte	.LFE4-.LFB4
 1029              		.align	2
 1030              	.LEFDE2:
 1031              	.LSFDE4:
 1032 0040 0C000000 		.4byte	.LEFDE4-.LASFDE4
 1033              	.LASFDE4:
 1034 0044 00000000 		.4byte	.Lframe0
 1035 0048 D4000000 		.4byte	.LFB5
 1036 004c 20000000 		.4byte	.LFE5-.LFB5
 1037              		.align	2
 1038              	.LEFDE4:
 1039              	.LSFDE6:
 1040 0050 0C000000 		.4byte	.LEFDE6-.LASFDE6
 1041              	.LASFDE6:
 1042 0054 00000000 		.4byte	.Lframe0
 1043 0058 F4000000 		.4byte	.LFB6
 1044 005c 44000000 		.4byte	.LFE6-.LFB6
 1045              		.align	2
 1046              	.LEFDE6:
 1047              	.LSFDE8:
 1048 0060 14000000 		.4byte	.LEFDE8-.LASFDE8
 1049              	.LASFDE8:
 1050 0064 00000000 		.4byte	.Lframe0
 1051 0068 38010000 		.4byte	.LFB7
 1052 006c 2C000000 		.4byte	.LFE7-.LFB7
 1053 0070 44       		.byte	0x4
 1054              		.4byte	.LCFI2-.LFB7
 1055 0071 0E       		.byte	0xe
 1056 0072 08       		.uleb128 0x8
 1057 0073 8E       		.byte	0x8e
 1058 0074 01       		.uleb128 0x1
 1059 0075 84       		.byte	0x84
 1060 0076 02       		.uleb128 0x2
 1061 0077 00       		.align	2
 1062              	.LEFDE8:
 1063              	.LSFDE10:
 1064 0078 24000000 		.4byte	.LEFDE10-.LASFDE10
 1065              	.LASFDE10:
 1066 007c 00000000 		.4byte	.Lframe0
 1067 0080 64010000 		.4byte	.LFB8
 1068 0084 18010000 		.4byte	.LFE8-.LFB8
 1069 0088 44       		.byte	0x4
 1070              		.4byte	.LCFI3-.LFB8
 1071 0089 0E       		.byte	0xe
 1072 008a 24       		.uleb128 0x24
 1073 008b 44       		.byte	0x4
 1074              		.4byte	.LCFI4-.LCFI3
 1075 008c 0E       		.byte	0xe
 1076 008d 44       		.uleb128 0x44
 1077 008e 8E       		.byte	0x8e
 1078 008f 01       		.uleb128 0x1
 1079 0090 8B       		.byte	0x8b
 1080 0091 02       		.uleb128 0x2
 1081 0092 8A       		.byte	0x8a
 1082 0093 03       		.uleb128 0x3
 1083 0094 89       		.byte	0x89
 1084 0095 04       		.uleb128 0x4
ARM GAS  /cygdrive/c/Users/embedded/AppData/Local/Temp/ccelz1ts.s 			page 30


 1085 0096 88       		.byte	0x88
 1086 0097 05       		.uleb128 0x5
 1087 0098 87       		.byte	0x87
 1088 0099 06       		.uleb128 0x6
 1089 009a 86       		.byte	0x86
 1090 009b 07       		.uleb128 0x7
 1091 009c 85       		.byte	0x85
 1092 009d 08       		.uleb128 0x8
 1093 009e 84       		.byte	0x84
 1094 009f 09       		.uleb128 0x9
 1095              		.align	2
 1096              	.LEFDE10:
 1097              	.LSFDE12:
 1098 00a0 0C000000 		.4byte	.LEFDE12-.LASFDE12
 1099              	.LASFDE12:
 1100 00a4 00000000 		.4byte	.Lframe0
 1101 00a8 7C020000 		.4byte	.LFB10
 1102 00ac 20000000 		.4byte	.LFE10-.LFB10
 1103              		.align	2
 1104              	.LEFDE12:
 1105              	.LSFDE14:
 1106 00b0 0C000000 		.4byte	.LEFDE14-.LASFDE14
 1107              	.LASFDE14:
 1108 00b4 00000000 		.4byte	.Lframe0
 1109 00b8 9C020000 		.4byte	.LFB11
 1110 00bc 24000000 		.4byte	.LFE11-.LFB11
 1111              		.align	2
 1112              	.LEFDE14:
 1113              	.LSFDE16:
 1114 00c0 18000000 		.4byte	.LEFDE16-.LASFDE16
 1115              	.LASFDE16:
 1116 00c4 00000000 		.4byte	.Lframe0
 1117 00c8 C0020000 		.4byte	.LFB12
 1118 00cc 78000000 		.4byte	.LFE12-.LFB12
 1119 00d0 44       		.byte	0x4
 1120              		.4byte	.LCFI5-.LFB12
 1121 00d1 0E       		.byte	0xe
 1122 00d2 0C       		.uleb128 0xc
 1123 00d3 8E       		.byte	0x8e
 1124 00d4 01       		.uleb128 0x1
 1125 00d5 85       		.byte	0x85
 1126 00d6 02       		.uleb128 0x2
 1127 00d7 84       		.byte	0x84
 1128 00d8 03       		.uleb128 0x3
 1129 00d9 000000   		.align	2
 1130              	.LEFDE16:
 1131              	.LSFDE18:
 1132 00dc 28000000 		.4byte	.LEFDE18-.LASFDE18
 1133              	.LASFDE18:
 1134 00e0 00000000 		.4byte	.Lframe0
 1135 00e4 38030000 		.4byte	.LFB9
 1136 00e8 80010000 		.4byte	.LFE9-.LFB9
 1137 00ec 44       		.byte	0x4
 1138              		.4byte	.LCFI6-.LFB9
 1139 00ed 0E       		.byte	0xe
 1140 00ee 10       		.uleb128 0x10
 1141 00ef 44       		.byte	0x4
ARM GAS  /cygdrive/c/Users/embedded/AppData/Local/Temp/ccelz1ts.s 			page 31


 1142              		.4byte	.LCFI7-.LCFI6
 1143 00f0 0E       		.byte	0xe
 1144 00f1 20       		.uleb128 0x20
 1145 00f2 44       		.byte	0x4
 1146              		.4byte	.LCFI8-.LCFI7
 1147 00f3 0E       		.byte	0xe
 1148 00f4 24       		.uleb128 0x24
 1149 00f5 8E       		.byte	0x8e
 1150 00f6 05       		.uleb128 0x5
 1151 00f7 86       		.byte	0x86
 1152 00f8 06       		.uleb128 0x6
 1153 00f9 85       		.byte	0x85
 1154 00fa 07       		.uleb128 0x7
 1155 00fb 84       		.byte	0x84
 1156 00fc 08       		.uleb128 0x8
 1157 00fd 83       		.byte	0x83
 1158 00fe 01       		.uleb128 0x1
 1159 00ff 82       		.byte	0x82
 1160 0100 02       		.uleb128 0x2
 1161 0101 81       		.byte	0x81
 1162 0102 03       		.uleb128 0x3
 1163 0103 80       		.byte	0x80
 1164 0104 04       		.uleb128 0x4
 1165 0105 000000   		.align	2
 1166              	.LEFDE18:
 1167              	.LSFDE20:
 1168 0108 1C000000 		.4byte	.LEFDE20-.LASFDE20
 1169              	.LASFDE20:
 1170 010c 00000000 		.4byte	.Lframe0
 1171 0110 B8040000 		.4byte	.LFB13
 1172 0114 E0000000 		.4byte	.LFE13-.LFB13
 1173 0118 44       		.byte	0x4
 1174              		.4byte	.LCFI9-.LFB13
 1175 0119 0E       		.byte	0xe
 1176 011a 10       		.uleb128 0x10
 1177 011b 44       		.byte	0x4
 1178              		.4byte	.LCFI10-.LCFI9
 1179 011c 0E       		.byte	0xe
 1180 011d 30       		.uleb128 0x30
 1181 011e 8E       		.byte	0x8e
 1182 011f 01       		.uleb128 0x1
 1183 0120 86       		.byte	0x86
 1184 0121 02       		.uleb128 0x2
 1185 0122 85       		.byte	0x85
 1186 0123 03       		.uleb128 0x3
 1187 0124 84       		.byte	0x84
 1188 0125 04       		.uleb128 0x4
 1189 0126 0000     		.align	2
 1190              	.LEFDE20:
 1191              	.LSFDE22:
 1192 0128 24000000 		.4byte	.LEFDE22-.LASFDE22
 1193              	.LASFDE22:
 1194 012c 00000000 		.4byte	.Lframe0
 1195 0130 98050000 		.4byte	.LFB14
 1196 0134 E4000000 		.4byte	.LFE14-.LFB14
 1197 0138 44       		.byte	0x4
 1198              		.4byte	.LCFI11-.LFB14
ARM GAS  /cygdrive/c/Users/embedded/AppData/Local/Temp/ccelz1ts.s 			page 32


 1199 0139 0E       		.byte	0xe
 1200 013a 10       		.uleb128 0x10
 1201 013b 44       		.byte	0x4
 1202              		.4byte	.LCFI12-.LCFI11
 1203 013c 0E       		.byte	0xe
 1204 013d 1C       		.uleb128 0x1c
 1205 013e 44       		.byte	0x4
 1206              		.4byte	.LCFI13-.LCFI12
 1207 013f 0E       		.byte	0xe
 1208 0140 20       		.uleb128 0x20
 1209 0141 8E       		.byte	0x8e
 1210 0142 05       		.uleb128 0x5
 1211 0143 85       		.byte	0x85
 1212 0144 06       		.uleb128 0x6
 1213 0145 84       		.byte	0x84
 1214 0146 07       		.uleb128 0x7
 1215 0147 83       		.byte	0x83
 1216 0148 01       		.uleb128 0x1
 1217 0149 82       		.byte	0x82
 1218 014a 02       		.uleb128 0x2
 1219 014b 81       		.byte	0x81
 1220 014c 03       		.uleb128 0x3
 1221 014d 80       		.byte	0x80
 1222 014e 04       		.uleb128 0x4
 1223 014f 00       		.align	2
 1224              	.LEFDE22:
 1225              		.file 2 "/cygdrive/c/Embedded/GNUARM/bin/../lib/gcc/arm-elf/4.1.1/include/stdarg.h"
 1226              		.text
 1227              	.Letext0: