ARM GAS  /cygdrive/c/Users/embedded/AppData/Local/Temp/ccelz1ts.s 			page 1


   1              		.file	"consol.c"
   2              		.section	.debug_abbrev,"",%progbits
   3              	.Ldebug_abbrev0:
   4              		.section	.debug_info,"",%progbits
   5              	.Ldebug_info0:
   6              		.section	.debug_line,"",%progbits
   7              	.Ldebug_line0:
   8 0000 8F010000 		.text
   8      02006C00 
   8      00000201 
   8      FB0E0D00 
   8      01010101 
   9              	.Ltext0:
  10              		.global	__umodsi3
  11              		.global	__udivsi3
  12              		.section	.rodata.str1.4,"aMS",%progbits,1
  13              		.align	2
  14              	.LC0:
  15 0000 30313233 		.ascii	"0123456789abcdef\000"
  15      34353637 
  15      38396162 
  15      63646566 
  15      00
  16              		.text
  17              		.align	2
  18              		.type	printNum, %function
  19              	printNum:
  20              	.LFB2:
  21              		.file 1 "consol.c"
   1:consol.c      **** /******************************************************************************
   2:consol.c      ****  *
   3:consol.c      ****  * Copyright:
   4:consol.c      ****  *    (C) 2000 - 2005 Embedded Artists AB
   5:consol.c      ****  *
   6:consol.c      ****  * Description:
   7:consol.c      ****  *    Framework specific implementation of consol
   8:consol.c      ****  *
   9:consol.c      ****  *****************************************************************************/
  10:consol.c      **** 
  11:consol.c      **** 
  12:consol.c      **** /******************************************************************************
  13:consol.c      ****  * Includes
  14:consol.c      ****  *****************************************************************************/
  15:consol.c      **** 
  16:consol.c      **** #include "lpc2xxx.h"                            /* LPC2xxx definitions */
  17:consol.c      **** #include <string.h>
  18:consol.c      **** #include <stdlib.h>
  19:consol.c      **** #include "config.h"
  20:consol.c      **** #include "consol.h"
  21:consol.c      **** #include "framework.h"
  22:consol.c      **** 
  23:consol.c      **** #if (CONSOLE_API_PRINTF == 1) || (CONSOLE_API_SCANF == 1) //own simple printf() or scanf()
  24:consol.c      **** #include <stdarg.h>
  25:consol.c      **** #endif
  26:consol.c      **** 
  27:consol.c      **** #define UART_DLL_VALUE (unsigned short)((PCLK / (CONSOL_BITRATE * 16.0)) + 0.5)
  28:consol.c      **** 
ARM GAS  /cygdrive/c/Users/embedded/AppData/Local/Temp/ccelz1ts.s 			page 2


  29:consol.c      **** #if (CONSOLE_API_SCANF == 1)  //SIMPLE
  30:consol.c      **** #define __isalpha(c) (c >'9')
  31:consol.c      **** #define __isupper(c) !(c & 0x20)
  32:consol.c      **** #define __ishex(c) (((c >= '0')&&(c <= '9'))||((c >= 'A')&&(c <= 'F')))
  33:consol.c      **** #define __ascii2hex(c) ((c <= '9')? c-'0': c-'A'+10)
  34:consol.c      **** #endif
  35:consol.c      **** 
  36:consol.c      **** /******************************************************************************
  37:consol.c      ****  * Implementation of local functions
  38:consol.c      ****  *****************************************************************************/
  39:consol.c      **** 
  40:consol.c      **** #if (CONSOLE_API_PRINTF == 1)  //OWN_PRINTF
  41:consol.c      **** /*****************************************************************************
  42:consol.c      ****  *
  43:consol.c      ****  * Description:
  44:consol.c      ****  *    Print a number. 
  45:consol.c      ****  *
  46:consol.c      ****  * Params:
  47:consol.c      ****  *    [in] outputFnk - Output function where characters to be printed are 
  48:consol.c      ****  *                      sent 
  49:consol.c      ****  * 
  50:consol.c      ****  *                Params (callback):
  51:consol.c      ****  *                   ch - Character to be printed 
  52:consol.c      ****  *    [in] number    - Number to be printed 
  53:consol.c      ****  *    [in] base      - Base when printing number (2-16) 
  54:consol.c      ****  *
  55:consol.c      ****  ****************************************************************************/
  56:consol.c      **** static void
  57:consol.c      **** printNum(void (*outputFnk) (char ch),
  58:consol.c      ****          unsigned int number,
  59:consol.c      ****          unsigned int base)
  60:consol.c      **** {
  22              		.loc 1 60 0
  23              		@ Function supports interworking.
  24              		@ args = 0, pretend = 0, frame = 52
  25              		@ frame_needed = 0, uses_anonymous_args = 0
  26              	.LVL0:
  27 0000 F0402DE9 		stmfd	sp!, {r4, r5, r6, r7, lr}
  28              	.LCFI0:
  29 0004 34D04DE2 		sub	sp, sp, #52
  30              	.LCFI1:
  31              		.loc 1 60 0
  32 0008 0070A0E1 		mov	r7, r0
  33 000c 0140A0E1 		mov	r4, r1
  34 0010 0260A0E1 		mov	r6, r2
  61:consol.c      **** 	char *p;
  62:consol.c      **** 	char  buf[33];
  63:consol.c      **** 	char  hexChars[] = "0123456789abcdef";
  35              		.loc 1 63 0
  36 0014 23008DE2 		add	r0, sp, #35
  37              	.LVL1:
  38 0018 60109FE5 		ldr	r1, .L11
  39              	.LVL2:
  40 001c 1120A0E3 		mov	r2, #17
  41              	.LVL3:
  42 0020 FEFFFFEB 		bl	memcpy
  43 0024 02508DE2 		add	r5, sp, #2
ARM GAS  /cygdrive/c/Users/embedded/AppData/Local/Temp/ccelz1ts.s 			page 3


  44              	.LVL4:
  45              	.L2:
  64:consol.c      **** 	
  65:consol.c      **** 	p = buf;
  66:consol.c      **** 	
  67:consol.c      **** 	do {
  68:consol.c      **** 		*p++ = hexChars[number % base];
  46              		.loc 1 68 0
  47 0028 0400A0E1 		mov	r0, r4
  48 002c 0610A0E1 		mov	r1, r6
  49 0030 FEFFFFEB 		bl	__umodsi3
  50 0034 34308DE2 		add	r3, sp, #52
  51 0038 000083E0 		add	r0, r3, r0
  52 003c 113050E5 		ldrb	r3, [r0, #-17]	@ zero_extendqisi2
  69:consol.c      **** 	} while (number /= base);
  53              		.loc 1 69 0
  54 0040 0610A0E1 		mov	r1, r6
  55 0044 0400A0E1 		mov	r0, r4
  56              		.loc 1 68 0
  57 0048 0130C5E4 		strb	r3, [r5], #1
  58              		.loc 1 69 0
  59 004c FEFFFFEB 		bl	__udivsi3
  60 0050 004050E2 		subs	r4, r0, #0
  61 0054 F3FFFF1A 		bne	.L2
  62 0058 0540A0E1 		mov	r4, r5
  63              	.LVL5:
  64              	.L4:
  70:consol.c      **** 	
  71:consol.c      **** 	do {
  72:consol.c      **** 		outputFnk(*--p);
  65              		.loc 1 72 0
  66 005c 010074E5 		ldrb	r0, [r4, #-1]!	@ zero_extendqisi2
  67 0060 0FE0A0E1 		mov	lr, pc
  68 0064 17FF2FE1 		bx	r7
  73:consol.c      **** 	} while (p > buf);
  69              		.loc 1 73 0
  70 0068 02308DE2 		add	r3, sp, #2
  71 006c 030054E1 		cmp	r4, r3
  72 0070 F9FFFF8A 		bhi	.L4
  74:consol.c      **** }
  73              		.loc 1 74 0
  74 0074 34D08DE2 		add	sp, sp, #52
  75 0078 F040BDE8 		ldmfd	sp!, {r4, r5, r6, r7, lr}
  76 007c 1EFF2FE1 		bx	lr
  77              	.L12:
  78              		.align	2
  79              	.L11:
  80 0080 00000000 		.word	.LC0
  81              	.LFE2:
  82              		.size	printNum, .-printNum
  83              		.align	2
  84              		.global	consolInit
  85              		.type	consolInit, %function
  86              	consolInit:
  87              	.LFB4:
  75:consol.c      **** 
  76:consol.c      **** /*****************************************************************************
ARM GAS  /cygdrive/c/Users/embedded/AppData/Local/Temp/ccelz1ts.s 			page 4


  77:consol.c      ****  *
  78:consol.c      ****  * Description:
  79:consol.c      ****  *    A simple implementation of printf that uses a minimum of stack space.
  80:consol.c      ****  *
  81:consol.c      ****  * Params:
  82:consol.c      ****  *    [in] outputFnk - Output function where characters to be printed are 
  83:consol.c      ****  *                      sent 
  84:consol.c      ****  * 
  85:consol.c      ****  *                Params (callback):
  86:consol.c      ****  *                   ch - Character to be printed 
  87:consol.c      ****  *    [in] fmt       - Format string that specifies what to be printed 
  88:consol.c      ****  *    [in] ap        - Structure that hold information about the variable 
  89:consol.c      ****  *                     number of parameters 
  90:consol.c      ****  *
  91:consol.c      ****  ****************************************************************************/
  92:consol.c      **** static void
  93:consol.c      **** simplePrint(void         (*outputFnk) (char ch),
  94:consol.c      ****             const char * fmt,
  95:consol.c      ****             va_list      ap)
  96:consol.c      **** {
  97:consol.c      ****   char          *p;
  98:consol.c      ****   char           ch;
  99:consol.c      ****   unsigned long  ul;
 100:consol.c      ****   unsigned char  lflag;
 101:consol.c      **** 
 102:consol.c      ****   for (;;)
 103:consol.c      ****   {
 104:consol.c      ****     while ((ch = *fmt++) != '%')
 105:consol.c      ****     {
 106:consol.c      ****       if (ch == '\0')
 107:consol.c      ****         	return;
 108:consol.c      ****       outputFnk(ch);
 109:consol.c      ****     }
 110:consol.c      ****     lflag = 0;
 111:consol.c      **** 
 112:consol.c      **** reswitch:
 113:consol.c      **** 
 114:consol.c      ****     switch (ch = *fmt++)
 115:consol.c      ****     {
 116:consol.c      ****     case '\0':
 117:consol.c      ****       return;
 118:consol.c      **** 
 119:consol.c      ****     case 'l':
 120:consol.c      ****       lflag = 1;
 121:consol.c      ****       goto reswitch;
 122:consol.c      **** 
 123:consol.c      ****     case 'c':
 124:consol.c      **** 	    ch = va_arg(ap, unsigned int);
 125:consol.c      **** 	    outputFnk(ch & 0x7f);
 126:consol.c      **** 	    break;
 127:consol.c      **** 
 128:consol.c      ****     case 's':
 129:consol.c      ****       p = va_arg(ap, char *);
 130:consol.c      ****       while ((ch = *p++) != 0)
 131:consol.c      ****         outputFnk(ch);
 132:consol.c      ****       break;
 133:consol.c      **** 
ARM GAS  /cygdrive/c/Users/embedded/AppData/Local/Temp/ccelz1ts.s 			page 5


 134:consol.c      ****     case 'd':
 135:consol.c      ****       ul = lflag ? va_arg(ap, long) : va_arg(ap, unsigned int);
 136:consol.c      ****       if ((long)ul < 0)
 137:consol.c      ****       {
 138:consol.c      ****         outputFnk('-');
 139:consol.c      ****         ul = -(long)ul;
 140:consol.c      ****       }
 141:consol.c      ****       printNum(outputFnk, ul, 10);
 142:consol.c      ****       break;
 143:consol.c      **** 
 144:consol.c      ****     case 'o':
 145:consol.c      ****       ul = va_arg(ap, unsigned int);
 146:consol.c      ****       printNum(outputFnk, ul, 8);
 147:consol.c      ****       break;
 148:consol.c      **** 
 149:consol.c      ****     case 'u':
 150:consol.c      ****       ul = va_arg(ap, unsigned int);
 151:consol.c      ****       printNum(outputFnk, ul, 10);
 152:consol.c      ****       break;
 153:consol.c      **** 
 154:consol.c      ****     case 'p':
 155:consol.c      ****       outputFnk('0');
 156:consol.c      ****       outputFnk('x');
 157:consol.c      ****       lflag = 1;
 158:consol.c      ****       // fall through
 159:consol.c      **** 
 160:consol.c      ****     case 'x':
 161:consol.c      ****       ul = va_arg(ap, unsigned int);
 162:consol.c      ****       printNum(outputFnk, ul, 16);
 163:consol.c      ****       break;
 164:consol.c      **** 
 165:consol.c      ****     default:
 166:consol.c      **** //      outputFnk('%');
 167:consol.c      ****       if (lflag)
 168:consol.c      ****         outputFnk('l');
 169:consol.c      ****       outputFnk(ch);
 170:consol.c      ****     }
 171:consol.c      ****   }
 172:consol.c      ****   va_end(ap);
 173:consol.c      **** }
 174:consol.c      **** #endif
 175:consol.c      **** 
 176:consol.c      **** /******************************************************************************
 177:consol.c      ****  * Implementation of public functions
 178:consol.c      ****  *****************************************************************************/
 179:consol.c      **** 
 180:consol.c      **** 
 181:consol.c      **** /*****************************************************************************
 182:consol.c      ****  *
 183:consol.c      ****  * Description:
 184:consol.c      ****  *    Initializes the consol channel (init UART, including setting bitrate and 
 185:consol.c      ****  *    GPIO). 
 186:consol.c      ****  *
 187:consol.c      ****  ****************************************************************************/
 188:consol.c      **** void
 189:consol.c      **** consolInit(void)
 190:consol.c      **** {
ARM GAS  /cygdrive/c/Users/embedded/AppData/Local/Temp/ccelz1ts.s 			page 6


  88              		.loc 1 190 0
  89              		@ Function supports interworking.
  90              		@ args = 0, pretend = 0, frame = 0
  91              		@ frame_needed = 0, uses_anonymous_args = 0
  92              		@ link register save eliminated.
 191:consol.c      **** #if (CONSOL_UART == 0)
 192:consol.c      ****   //enable uart #0 pins in GPIO (P0.0 = TxD0, P0.1 = RxD0)
 193:consol.c      ****   PINSEL0 = (PINSEL0 & 0xfffffff0) | 0x00000005;
  93              		.loc 1 193 0
  94 0084 40009FE5 		ldr	r0, .L15
  95 0088 003090E5 		ldr	r3, [r0, #0]
  96 008c 0F30C3E3 		bic	r3, r3, #15
 194:consol.c      **** #else
 195:consol.c      ****   //enable uart #1 pins in GPIO (P0.8 = TxD1, P9.1 = RxD1)
 196:consol.c      ****   PINSEL0 = (PINSEL0 & 0xfff0ffff) | 0x00050000;
 197:consol.c      **** #endif
 198:consol.c      **** 
 199:consol.c      ****   //initialize bitrate (by first enable DL registers, DLAB-bit = 1)
 200:consol.c      ****   UART_LCR = 0x80;
  97              		.loc 1 200 0
  98 0090 38209FE5 		ldr	r2, .L15+4
  99              		.loc 1 193 0
 100 0094 053083E3 		orr	r3, r3, #5
 101 0098 003080E5 		str	r3, [r0, #0]
 102              		.loc 1 200 0
 103 009c 8030A0E3 		mov	r3, #128
 104 00a0 0C3082E5 		str	r3, [r2, #12]
 201:consol.c      ****   UART_DLL = (unsigned char)(UART_DLL_VALUE & 0x00ff);
 105              		.loc 1 201 0
 106 00a4 2030A0E3 		mov	r3, #32
 107 00a8 003082E5 		str	r3, [r2, #0]
 202:consol.c      ****   UART_DLM = (unsigned char)(UART_DLL_VALUE>>8);
 108              		.loc 1 202 0
 109 00ac 0010A0E3 		mov	r1, #0
 203:consol.c      ****   UART_LCR = 0x00;
 204:consol.c      **** 
 205:consol.c      ****   //initialize LCR: 8N1
 206:consol.c      ****   UART_LCR = 0x03;
 110              		.loc 1 206 0
 111 00b0 0330A0E3 		mov	r3, #3
 112              		.loc 1 202 0
 113 00b4 041082E5 		str	r1, [r2, #4]
 114              		.loc 1 190 0
 115              		@ lr needed for prologue
 116              		.loc 1 203 0
 117 00b8 0C1082E5 		str	r1, [r2, #12]
 118              		.loc 1 206 0
 119 00bc 0C3082E5 		str	r3, [r2, #12]
 207:consol.c      **** 
 208:consol.c      ****   //reset FIFO
 209:consol.c      ****   UART_FCR = 0x00;
 120              		.loc 1 209 0
 121 00c0 081082E5 		str	r1, [r2, #8]
 210:consol.c      **** 
 211:consol.c      ****   //clear interrupt bits
 212:consol.c      ****   UART_IER = 0x00;
 122              		.loc 1 212 0
ARM GAS  /cygdrive/c/Users/embedded/AppData/Local/Temp/ccelz1ts.s 			page 7


 123 00c4 041082E5 		str	r1, [r2, #4]
 213:consol.c      **** }
 124              		.loc 1 213 0
 125 00c8 1EFF2FE1 		bx	lr
 126              	.L16:
 127              		.align	2
 128              	.L15:
 129 00cc 00C002E0 		.word	-536690688
 130 00d0 00C000E0 		.word	-536821760
 131              	.LFE4:
 132              		.size	consolInit, .-consolInit
 133              		.align	2
 134              		.global	consolSendChar
 135              		.type	consolSendChar, %function
 136              	consolSendChar:
 137              	.LFB5:
 214:consol.c      **** 
 215:consol.c      **** /*****************************************************************************
 216:consol.c      ****  *
 217:consol.c      ****  * Description:
 218:consol.c      ****  *    Blocking consol output routine, i.e., the routine waits until the uart 
 219:consol.c      ****  *    buffer is free and then sends the character. 
 220:consol.c      ****  *
 221:consol.c      ****  * Params:
 222:consol.c      ****  *    [in] charToSend - The character to print (to the consol) 
 223:consol.c      ****  *
 224:consol.c      ****  ****************************************************************************/
 225:consol.c      **** void
 226:consol.c      **** consolSendChar(char charToSend)
 227:consol.c      **** {
 138              		.loc 1 227 0
 139              		@ Function supports interworking.
 140              		@ args = 0, pretend = 0, frame = 0
 141              		@ frame_needed = 0, uses_anonymous_args = 0
 142              		@ link register save eliminated.
 143              	.LVL6:
 144              		@ lr needed for prologue
 145 00d4 FF0000E2 		and	r0, r0, #255
 146              	.L19:
 228:consol.c      ****   //Wait until THR is empty
 229:consol.c      ****   while(!(UART_LSR & 0x20))
 147              		.loc 1 229 0
 148 00d8 10209FE5 		ldr	r2, .L24
 149 00dc 143092E5 		ldr	r3, [r2, #20]
 150 00e0 200013E3 		tst	r3, #32
 151 00e4 FBFFFF0A 		beq	.L19
 230:consol.c      ****     ;
 231:consol.c      ****   UART_THR = charToSend;
 152              		.loc 1 231 0
 153 00e8 000082E5 		str	r0, [r2, #0]
 232:consol.c      **** }
 154              		.loc 1 232 0
 155 00ec 1EFF2FE1 		bx	lr
 156              	.L25:
 157              		.align	2
 158              	.L24:
 159 00f0 00C000E0 		.word	-536821760
ARM GAS  /cygdrive/c/Users/embedded/AppData/Local/Temp/ccelz1ts.s 			page 8


 160              	.LFE5:
 161              		.size	consolSendChar, .-consolSendChar
 162              		.align	2
 163              		.global	consolSendCh
 164              		.type	consolSendCh, %function
 165              	consolSendCh:
 166              	.LFB6:
 233:consol.c      **** 
 234:consol.c      **** /*****************************************************************************
 235:consol.c      ****  *
 236:consol.c      ****  * Description:
 237:consol.c      ****  *    Consol output routine that adds extra line feeds at line breaks. 
 238:consol.c      ****  *
 239:consol.c      ****  * Params:
 240:consol.c      ****  *    [in] charToSend - The character to print (to the consol) 
 241:consol.c      ****  *
 242:consol.c      ****  ****************************************************************************/
 243:consol.c      **** void
 244:consol.c      **** consolSendCh(char charToSend)
 245:consol.c      **** {
 167              		.loc 1 245 0
 168              		@ Function supports interworking.
 169              		@ args = 0, pretend = 0, frame = 0
 170              		@ frame_needed = 0, uses_anonymous_args = 0
 171              		@ link register save eliminated.
 172              	.LVL7:
 173 00f4 FF0000E2 		and	r0, r0, #255
 246:consol.c      ****   if(charToSend == '\n')
 174              		.loc 1 246 0
 175 00f8 0A0050E3 		cmp	r0, #10
 176              		.loc 1 245 0
 177              		@ lr needed for prologue
 178              		.loc 1 246 0
 179 00fc 0500001A 		bne	.L34
 180              	.L33:
 181              	.LBB8:
 182              	.LBB9:
 183              		.loc 1 229 0
 184 0100 2C209FE5 		ldr	r2, .L39
 185 0104 143092E5 		ldr	r3, [r2, #20]
 186 0108 200013E3 		tst	r3, #32
 187 010c FBFFFF0A 		beq	.L33
 188              		.loc 1 231 0
 189 0110 0D30A0E3 		mov	r3, #13
 190 0114 003082E5 		str	r3, [r2, #0]
 191              	.L34:
 192              	.LBE9:
 193              	.LBE8:
 194              	.LBB10:
 195              	.LBB11:
 196              		.loc 1 229 0
 197 0118 14209FE5 		ldr	r2, .L39
 198 011c 143092E5 		ldr	r3, [r2, #20]
 199 0120 200013E3 		tst	r3, #32
 200 0124 FBFFFF0A 		beq	.L34
 201              		.loc 1 231 0
 202 0128 FF3000E2 		and	r3, r0, #255
ARM GAS  /cygdrive/c/Users/embedded/AppData/Local/Temp/ccelz1ts.s 			page 9


 203 012c 003082E5 		str	r3, [r2, #0]
 204              	.LBE11:
 205              	.LBE10:
 247:consol.c      ****     consolSendChar('\r');
 248:consol.c      **** 
 249:consol.c      ****   consolSendChar(charToSend);
 250:consol.c      **** }
 206              		.loc 1 250 0
 207 0130 1EFF2FE1 		bx	lr
 208              	.L40:
 209              		.align	2
 210              	.L39:
 211 0134 00C000E0 		.word	-536821760
 212              	.LFE6:
 213              		.size	consolSendCh, .-consolSendCh
 214              		.align	2
 215              		.global	consolSendString
 216              		.type	consolSendString, %function
 217              	consolSendString:
 218              	.LFB7:
 251:consol.c      **** 
 252:consol.c      **** /*****************************************************************************
 253:consol.c      ****  *
 254:consol.c      ****  * Description:
 255:consol.c      ****  *    Print string to consol. 
 256:consol.c      ****  *
 257:consol.c      ****  * Params:
 258:consol.c      ****  *    [in] pString - Pointer to string to be printed 
 259:consol.c      ****  *
 260:consol.c      ****  ****************************************************************************/
 261:consol.c      **** void
 262:consol.c      **** consolSendString(char *pString)
 263:consol.c      **** {
 219              		.loc 1 263 0
 220              		@ Function supports interworking.
 221              		@ args = 0, pretend = 0, frame = 0
 222              		@ frame_needed = 0, uses_anonymous_args = 0
 223              	.LVL8:
 224 0138 10402DE9 		stmfd	sp!, {r4, lr}
 225              	.LCFI2:
 226              		.loc 1 263 0
 227 013c 0040A0E1 		mov	r4, r0
 228 0140 000000EA 		b	.L42
 229              	.LVL9:
 230              	.L43:
 264:consol.c      ****   while(*pString)
 265:consol.c      ****     consolSendCh(*pString++);
 231              		.loc 1 265 0
 232 0144 FEFFFFEB 		bl	consolSendCh
 233              	.LVL10:
 234              	.L42:
 235              		.loc 1 264 0
 236 0148 0030D4E5 		ldrb	r3, [r4, #0]	@ zero_extendqisi2
 237 014c 000053E3 		cmp	r3, #0
 238              		.loc 1 265 0
 239 0150 0300A0E1 		mov	r0, r3
 240 0154 014084E2 		add	r4, r4, #1
ARM GAS  /cygdrive/c/Users/embedded/AppData/Local/Temp/ccelz1ts.s 			page 10


 241              		.loc 1 264 0
 242 0158 F9FFFF1A 		bne	.L43
 266:consol.c      **** }
 243              		.loc 1 266 0
 244 015c 1040BDE8 		ldmfd	sp!, {r4, lr}
 245 0160 1EFF2FE1 		bx	lr
 246              	.LFE7:
 247              		.size	consolSendString, .-consolSendString
 248              		.align	2
 249              		.global	consolSendNumber
 250              		.type	consolSendNumber, %function
 251              	consolSendNumber:
 252              	.LFB8:
 267:consol.c      **** 
 268:consol.c      **** /*****************************************************************************
 269:consol.c      ****  *
 270:consol.c      ****  * Description:
 271:consol.c      ****  *    Routine for printing integer numbers in various formats. The number is 
 272:consol.c      ****  *    printed in the specified 'base' using exactly 'noDigits', using +/- if 
 273:consol.c      ****  *    signed flag 'sign' is TRUE, and using the character specified in 'pad' 
 274:consol.c      ****  *    to pad extra characters. 
 275:consol.c      ****  *
 276:consol.c      ****  * Params:
 277:consol.c      ****  *    [in] base     - Base to print number in (2-16) 
 278:consol.c      ****  *    [in] noDigits - Number of digits to print (max 32) 
 279:consol.c      ****  *    [in] sign     - Flag if sign is to be used (TRUE), or not (FALSE) 
 280:consol.c      ****  *    [in] pad      - Character to pad any unused positions 
 281:consol.c      ****  *    [in] number   - Signed number to print 
 282:consol.c      ****  *
 283:consol.c      ****  ****************************************************************************/
 284:consol.c      **** void
 285:consol.c      **** consolSendNumber(unsigned char base,
 286:consol.c      ****                  unsigned char noDigits,
 287:consol.c      ****                  unsigned char sign,
 288:consol.c      ****                  char          pad,
 289:consol.c      ****                  int           number)
 290:consol.c      **** {
 253              		.loc 1 290 0
 254              		@ Function supports interworking.
 255              		@ args = 4, pretend = 0, frame = 32
 256              		@ frame_needed = 0, uses_anonymous_args = 0
 257              	.LVL11:
 258 0164 F04F2DE9 		stmfd	sp!, {r4, r5, r6, r7, r8, r9, sl, fp, lr}
 259              	.LCFI3:
 260 0168 20D04DE2 		sub	sp, sp, #32
 261              	.LCFI4:
 262              		.loc 1 290 0
 263 016c 44809DE5 		ldr	r8, [sp, #68]
 291:consol.c      ****   static char    hexChars[16] = "0123456789ABCDEF";
 292:consol.c      ****   char          *pBuf;
 293:consol.c      ****   char           buf[32];
 294:consol.c      ****   unsigned int   numberAbs;
 295:consol.c      ****   unsigned char  count;
 296:consol.c      **** 
 297:consol.c      ****   // prepare negative number
 298:consol.c      ****   if(sign && (number < 0))
 264              		.loc 1 298 0
ARM GAS  /cygdrive/c/Users/embedded/AppData/Local/Temp/ccelz1ts.s 			page 11


 265 0170 FF2012E2 		ands	r2, r2, #255
 266 0174 00A0A003 		moveq	sl, #0
 267 0178 01A0A013 		movne	sl, #1
 268 017c A89FA0E1 		mov	r9, r8, lsr #31
 269 0180 09001AE1 		tst	sl, r9
 299:consol.c      ****     numberAbs = -number;
 270              		.loc 1 299 0
 271 0184 00406812 		rsbne	r4, r8, #0
 272              	.LVL12:
 300:consol.c      ****   else
 301:consol.c      ****     numberAbs = number;
 273              		.loc 1 301 0
 274 0188 0840A001 		moveq	r4, r8
 275              		.loc 1 290 0
 276 018c FF7000E2 		and	r7, r0, #255
 277 0190 FF1001E2 		and	r1, r1, #255
 302:consol.c      **** 
 303:consol.c      ****   // setup little string buffer
 304:consol.c      ****   count = (noDigits - 1) - (sign ? 1 : 0);
 278              		.loc 1 304 0
 279 0194 000052E3 		cmp	r2, #0
 280 0198 0120A001 		moveq	r2, r1
 281 019c 01204112 		subne	r2, r1, #1
 282              	.LVL13:
 305:consol.c      ****   pBuf = buf + sizeof(buf);
 306:consol.c      ****   *--pBuf = '\0';
 307:consol.c      **** 
 308:consol.c      ****   // force calculation of first digit
 309:consol.c      ****   // (to prevent zero from not printing at all!!!)
 310:consol.c      ****   *--pBuf = hexChars[(numberAbs % base)];
 283              		.loc 1 310 0
 284 01a0 0400A0E1 		mov	r0, r4
 285              	.LVL14:
 286 01a4 0710A0E1 		mov	r1, r7
 287              	.LVL15:
 288              		.loc 1 290 0
 289 01a8 FFB003E2 		and	fp, r3, #255
 290              		.loc 1 306 0
 291 01ac 0030A0E3 		mov	r3, #0
 292              	.LVL16:
 293 01b0 1F30CDE5 		strb	r3, [sp, #31]
 294              		.loc 1 304 0
 295 01b4 FF6002E2 		and	r6, r2, #255
 296              		.loc 1 310 0
 297 01b8 FEFFFFEB 		bl	__umodsi3
 298 01bc B4309FE5 		ldr	r3, .L64
 299 01c0 0030D3E7 		ldrb	r3, [r3, r0]	@ zero_extendqisi2
 311:consol.c      ****   numberAbs /= base;
 300              		.loc 1 311 0
 301 01c4 0710A0E1 		mov	r1, r7
 302 01c8 0400A0E1 		mov	r0, r4
 303              		.loc 1 310 0
 304 01cc 1E30CDE5 		strb	r3, [sp, #30]
 305              		.loc 1 311 0
 306 01d0 FEFFFFEB 		bl	__udivsi3
 307 01d4 1E408DE2 		add	r4, sp, #30
 308              	.LVL17:
ARM GAS  /cygdrive/c/Users/embedded/AppData/Local/Temp/ccelz1ts.s 			page 12


 309 01d8 0050A0E1 		mov	r5, r0
 310              	.LVL18:
 311 01dc 0F0000EA 		b	.L50
 312              	.LVL19:
 313              	.L51:
 312:consol.c      **** 
 313:consol.c      ****   // calculate remaining digits
 314:consol.c      ****   while(count--)
 315:consol.c      ****   {
 316:consol.c      ****     if(numberAbs != 0)
 314              		.loc 1 316 0
 315 01e0 000055E3 		cmp	r5, #0
 316 01e4 013044E2 		sub	r3, r4, #1
 317:consol.c      ****     {
 318:consol.c      ****       //calculate next digit
 319:consol.c      ****       *--pBuf = hexChars[(numberAbs % base)];
 317              		.loc 1 319 0
 318 01e8 0340A0E1 		mov	r4, r3
 320:consol.c      ****       numberAbs /= base;
 321:consol.c      ****     }
 322:consol.c      ****     else
 323:consol.c      ****       // no more digits left, pad out to desired length
 324:consol.c      ****       *--pBuf = pad;
 319              		.loc 1 324 0
 320 01ec 0340A001 		moveq	r4, r3
 321 01f0 00B0C405 		streqb	fp, [r4, #0]
 322              		.loc 1 316 0
 323 01f4 0700000A 		beq	.L54
 324              	.LVL20:
 325              		.loc 1 319 0
 326 01f8 FEFFFFEB 		bl	__umodsi3
 327 01fc 74309FE5 		ldr	r3, .L64
 328 0200 0030D3E7 		ldrb	r3, [r3, r0]	@ zero_extendqisi2
 329              		.loc 1 320 0
 330 0204 0710A0E1 		mov	r1, r7
 331 0208 0500A0E1 		mov	r0, r5
 332              		.loc 1 319 0
 333 020c 0030C4E5 		strb	r3, [r4, #0]
 334              		.loc 1 320 0
 335 0210 FEFFFFEB 		bl	__udivsi3
 336 0214 0050A0E1 		mov	r5, r0
 337              	.LVL21:
 338              	.L54:
 339              		.loc 1 324 0
 340 0218 013046E2 		sub	r3, r6, #1
 341 021c FF6003E2 		and	r6, r3, #255
 342              	.L50:
 343              		.loc 1 314 0
 344 0220 010056E3 		cmp	r6, #1
 345              		.loc 1 319 0
 346 0224 0500A0E1 		mov	r0, r5
 347 0228 0710A0E1 		mov	r1, r7
 348              		.loc 1 314 0
 349 022c EBFFFF1A 		bne	.L51
 350              	.LVL22:
 325:consol.c      ****   }
 326:consol.c      **** 
ARM GAS  /cygdrive/c/Users/embedded/AppData/Local/Temp/ccelz1ts.s 			page 13


 327:consol.c      ****   // apply signed notation if requested
 328:consol.c      ****   if(sign)
 351              		.loc 1 328 0
 352 0230 00005AE3 		cmp	sl, #0
 353 0234 0A00000A 		beq	.L56
 329:consol.c      ****   {
 330:consol.c      ****     if(number < 0)
 354              		.loc 1 330 0
 355 0238 000059E3 		cmp	r9, #0
 331:consol.c      ****       *--pBuf = '-';
 356              		.loc 1 331 0
 357 023c 2D30A013 		movne	r3, #45
 358 0240 01306415 		strneb	r3, [r4, #-1]!
 359              		.loc 1 330 0
 360 0244 0600001A 		bne	.L56
 361 0248 013044E2 		sub	r3, r4, #1
 332:consol.c      ****     else if(number > 0)
 362              		.loc 1 332 0
 363 024c 000058E3 		cmp	r8, #0
 333:consol.c      ****        *--pBuf = '+';
 364              		.loc 1 333 0
 365 0250 0340A011 		movne	r4, r3
 334:consol.c      ****     else
 335:consol.c      ****        *--pBuf = ' ';
 366              		.loc 1 335 0
 367 0254 0340A001 		moveq	r4, r3
 368              		.loc 1 333 0
 369 0258 2B30A013 		movne	r3, #43
 370              		.loc 1 335 0
 371 025c 2030A003 		moveq	r3, #32
 372 0260 0030C4E5 		strb	r3, [r4, #0]
 373              	.L56:
 336:consol.c      ****   }
 337:consol.c      **** 
 338:consol.c      ****   // print the string right-justified
 339:consol.c      ****   consolSendString(pBuf);
 374              		.loc 1 339 0
 375 0264 0400A0E1 		mov	r0, r4
 376              	.LVL23:
 377 0268 FEFFFFEB 		bl	consolSendString
 340:consol.c      **** }
 378              		.loc 1 340 0
 379 026c 20D08DE2 		add	sp, sp, #32
 380 0270 F04FBDE8 		ldmfd	sp!, {r4, r5, r6, r7, r8, r9, sl, fp, lr}
 381 0274 1EFF2FE1 		bx	lr
 382              	.L65:
 383              		.align	2
 384              	.L64:
 385 0278 00000000 		.word	hexChars.2029
 386              	.LFE8:
 387              		.size	consolSendNumber, .-consolSendNumber
 388              		.align	2
 389              		.global	consolGetCh
 390              		.type	consolGetCh, %function
 391              	consolGetCh:
 392              	.LFB10:
 341:consol.c      **** 
ARM GAS  /cygdrive/c/Users/embedded/AppData/Local/Temp/ccelz1ts.s 			page 14


 342:consol.c      **** #if (CONSOLE_API_PRINTF == 1)  //OWN_PRINTF
 343:consol.c      **** /*****************************************************************************
 344:consol.c      ****  *
 345:consol.c      ****  * Description:
 346:consol.c      ****  *    Simple implementation of printf 
 347:consol.c      ****  *
 348:consol.c      ****  * Params:
 349:consol.c      ****  *    [in] fmt - Format string that specifies what to be printed 
 350:consol.c      ****  *    [in] ... - Variable number of parameters to match format string 
 351:consol.c      ****  *
 352:consol.c      ****  ****************************************************************************/
 353:consol.c      **** void
 354:consol.c      **** simplePrintf(const char * fmt,
 355:consol.c      ****              ...          )
 356:consol.c      **** {
 357:consol.c      **** 	va_list ap;
 358:consol.c      **** 
 359:consol.c      **** 	va_start(ap, fmt);
 360:consol.c      **** 	simplePrint(consolSendCh, fmt, ap);
 361:consol.c      **** 	va_end(ap);
 362:consol.c      **** }
 363:consol.c      **** #endif
 364:consol.c      **** 
 365:consol.c      **** 
 366:consol.c      **** #if (CONSOLE_API_SCANF == 1)  //SIMPLE
 367:consol.c      **** 
 368:consol.c      **** /*****************************************************************************
 369:consol.c      ****  *
 370:consol.c      ****  * Description:
 371:consol.c      ****  *    Wait (blocking call) for a character to be received. 
 372:consol.c      ****  *
 373:consol.c      ****  * Returns:
 374:consol.c      ****  *    char - Received character
 375:consol.c      ****  *
 376:consol.c      ****  ****************************************************************************/
 377:consol.c      **** char
 378:consol.c      **** consolGetCh(void)
 379:consol.c      **** {
 393              		.loc 1 379 0
 394              		@ Function supports interworking.
 395              		@ args = 0, pretend = 0, frame = 0
 396              		@ frame_needed = 0, uses_anonymous_args = 0
 397              		@ link register save eliminated.
 398              		@ lr needed for prologue
 399              	.L68:
 380:consol.c      ****   while(!(UART_LSR & (0x01<<0)))
 400              		.loc 1 380 0
 401 027c 14209FE5 		ldr	r2, .L73
 402 0280 143092E5 		ldr	r3, [r2, #20]
 403 0284 010013E3 		tst	r3, #1
 404 0288 FBFFFF0A 		beq	.L68
 381:consol.c      ****     ;
 382:consol.c      ****   return UART_RBR;
 405              		.loc 1 382 0
 406 028c 000092E5 		ldr	r0, [r2, #0]
 407 0290 FF0000E2 		and	r0, r0, #255
 383:consol.c      **** }
ARM GAS  /cygdrive/c/Users/embedded/AppData/Local/Temp/ccelz1ts.s 			page 15


 408              		.loc 1 383 0
 409 0294 1EFF2FE1 		bx	lr
 410              	.L74:
 411              		.align	2
 412              	.L73:
 413 0298 00C000E0 		.word	-536821760
 414              	.LFE10:
 415              		.size	consolGetCh, .-consolGetCh
 416              		.align	2
 417              		.global	consolGetChar
 418              		.type	consolGetChar, %function
 419              	consolGetChar:
 420              	.LFB11:
 384:consol.c      **** 
 385:consol.c      **** /*****************************************************************************
 386:consol.c      ****  *
 387:consol.c      ****  * Description:
 388:consol.c      ****  *    Check (non-blocking call) if a character has been received. 
 389:consol.c      ****  *
 390:consol.c      ****  * Params:
 391:consol.c      ****  *    [inout] pChar - pointer to where to place received character
 392:consol.c      ****  *
 393:consol.c      ****  * Returns:
 394:consol.c      ****  *    char - TRUE if character has been received (placed at pointed location)
 395:consol.c      ****  *           FALSE if no character has been received.
 396:consol.c      ****  *
 397:consol.c      ****  ****************************************************************************/
 398:consol.c      **** char
 399:consol.c      **** consolGetChar(char *pChar)
 400:consol.c      **** {
 421              		.loc 1 400 0
 422              		@ Function supports interworking.
 423              		@ args = 0, pretend = 0, frame = 0
 424              		@ frame_needed = 0, uses_anonymous_args = 0
 425              		@ link register save eliminated.
 426              	.LVL24:
 401:consol.c      ****   if((UART_LSR & 0x01) != 0x00)
 427              		.loc 1 401 0
 428 029c 18209FE5 		ldr	r2, .L80
 429 02a0 143092E5 		ldr	r3, [r2, #20]
 430 02a4 013013E2 		ands	r3, r3, #1
 402:consol.c      ****   {
 403:consol.c      ****     *pChar = UART_RBR;
 431              		.loc 1 403 0
 432 02a8 00309215 		ldrne	r3, [r2, #0]
 433 02ac 0030C015 		strneb	r3, [r0, #0]
 434 02b0 0130A013 		movne	r3, #1
 404:consol.c      ****     return 1;
 405:consol.c      ****   }
 406:consol.c      ****   return 0;
 407:consol.c      **** }
 435              		.loc 1 407 0
 436 02b4 0300A0E1 		mov	r0, r3
 437              	.LVL25:
 438              		.loc 1 400 0
 439              		@ lr needed for prologue
 440              		.loc 1 407 0
ARM GAS  /cygdrive/c/Users/embedded/AppData/Local/Temp/ccelz1ts.s 			page 16


 441 02b8 1EFF2FE1 		bx	lr
 442              	.L81:
 443              		.align	2
 444              	.L80:
 445 02bc 00C000E0 		.word	-536821760
 446              	.LFE11:
 447              		.size	consolGetChar, .-consolGetChar
 448              		.section	.rodata.str1.4
 449 0011 000000   		.align	2
 450              	.LC1:
 451 0014 08200800 		.ascii	"\010 \010\000"
 452              		.text
 453              		.align	2
 454              		.global	consolGetString
 455              		.type	consolGetString, %function
 456              	consolGetString:
 457              	.LFB12:
 408:consol.c      **** 
 409:consol.c      **** /*****************************************************************************
 410:consol.c      ****  *
 411:consol.c      ****  * Description:
 412:consol.c      ****  *    Receive (blocking call) a string (end with '\r'). 
 413:consol.c      ****  *
 414:consol.c      ****  * Params:
 415:consol.c      ****  *    [inout] pString - pointer to return the received string
 416:consol.c      ****  *
 417:consol.c      ****  ****************************************************************************/
 418:consol.c      **** void
 419:consol.c      **** consolGetString(char *pString)
 420:consol.c      **** {
 458              		.loc 1 420 0
 459              		@ Function supports interworking.
 460              		@ args = 0, pretend = 0, frame = 0
 461              		@ frame_needed = 0, uses_anonymous_args = 0
 462              	.LVL26:
 463 02c0 30402DE9 		stmfd	sp!, {r4, r5, lr}
 464              	.LCFI5:
 465              		.loc 1 420 0
 466 02c4 0040A0E1 		mov	r4, r0
 467              	.LVL27:
 468 02c8 0050A0E1 		mov	r5, r0
 469              	.LVL28:
 470 02cc 090000EA 		b	.L96
 471              	.LVL29:
 472              	.L84:
 421:consol.c      ****   char *pString2;
 422:consol.c      ****   char rxChar;
 423:consol.c      **** 
 424:consol.c      ****   pString2 = pString;
 425:consol.c      ****   while((rxChar = consolGetCh()) != '\r')
 426:consol.c      ****   {
 427:consol.c      ****     if (rxChar == '\b')
 473              		.loc 1 427 0
 474 02d0 080053E3 		cmp	r3, #8
 475 02d4 0500001A 		bne	.L85
 476              	.LVL30:
 428:consol.c      ****     {
ARM GAS  /cygdrive/c/Users/embedded/AppData/Local/Temp/ccelz1ts.s 			page 17


 429:consol.c      ****       if ((int)pString2 < (int)pString)
 477              		.loc 1 429 0
 478 02d8 040055E1 		cmp	r5, r4
 430:consol.c      ****       {
 431:consol.c      ****         consolSendString("\b \b");
 479              		.loc 1 431 0
 480 02dc 4C009FE5 		ldr	r0, .L97
 481              		.loc 1 429 0
 482 02e0 040000AA 		bge	.L96
 483              		.loc 1 431 0
 484 02e4 FEFFFFEB 		bl	consolSendString
 485              	.LVL31:
 432:consol.c      ****         pString--;
 486              		.loc 1 432 0
 487 02e8 014044E2 		sub	r4, r4, #1
 488 02ec 010000EA 		b	.L96
 489              	.LVL32:
 490              	.L85:
 433:consol.c      ****       }
 434:consol.c      ****     }
 435:consol.c      ****     else
 436:consol.c      ****     {
 437:consol.c      ****       *pString++ = rxChar;
 491              		.loc 1 437 0
 492 02f0 0130C4E4 		strb	r3, [r4], #1
 438:consol.c      ****       consolSendCh(rxChar);
 493              		.loc 1 438 0
 494 02f4 FEFFFFEB 		bl	consolSendCh
 495              	.LVL33:
 496              	.L96:
 497              	.LBB12:
 498              	.LBB13:
 499              		.loc 1 380 0
 500 02f8 34209FE5 		ldr	r2, .L97+4
 501 02fc 143092E5 		ldr	r3, [r2, #20]
 502              	.LVL34:
 503 0300 010013E3 		tst	r3, #1
 504 0304 FBFFFF0A 		beq	.L96
 505              	.LVL35:
 506              		.loc 1 382 0
 507 0308 003092E5 		ldr	r3, [r2, #0]
 508              	.LBE13:
 509              	.LBE12:
 510              		.loc 1 425 0
 511 030c FF3003E2 		and	r3, r3, #255
 512              	.LVL36:
 513 0310 0D0053E3 		cmp	r3, #13
 514              		.loc 1 438 0
 515 0314 0300A0E1 		mov	r0, r3
 516              	.LVL37:
 517              		.loc 1 425 0
 518 0318 ECFFFF1A 		bne	.L84
 519              	.LVL38:
 439:consol.c      ****     }
 440:consol.c      ****   }
 441:consol.c      ****   *pString = '\0';
 520              		.loc 1 441 0
ARM GAS  /cygdrive/c/Users/embedded/AppData/Local/Temp/ccelz1ts.s 			page 18


 521 031c 0030A0E3 		mov	r3, #0
 442:consol.c      ****   consolSendCh('\n');
 522              		.loc 1 442 0
 523 0320 0A00A0E3 		mov	r0, #10
 524              	.LVL39:
 525              		.loc 1 441 0
 526 0324 0030C4E5 		strb	r3, [r4, #0]
 443:consol.c      **** }
 527              		.loc 1 443 0
 528 0328 3040BDE8 		ldmfd	sp!, {r4, r5, lr}
 529              		.loc 1 442 0
 530 032c FEFFFFEA 		b	consolSendCh
 531              	.L98:
 532              		.align	2
 533              	.L97:
 534 0330 14000000 		.word	.LC1
 535 0334 00C000E0 		.word	-536821760
 536              	.LFE12:
 537              		.size	consolGetString, .-consolGetString
 538              		.align	2
 539              		.global	simplePrintf
 540              		.type	simplePrintf, %function
 541              	simplePrintf:
 542              	.LFB9:
 543              		.loc 1 356 0
 544              		@ Function supports interworking.
 545              		@ args = 4, pretend = 16, frame = 4
 546              		@ frame_needed = 0, uses_anonymous_args = 1
 547              	.LVL40:
 548 0338 0F002DE9 		stmfd	sp!, {r0, r1, r2, r3}
 549              	.LCFI6:
 550 033c 70402DE9 		stmfd	sp!, {r4, r5, r6, lr}
 551              	.LCFI7:
 552 0340 04D04DE2 		sub	sp, sp, #4
 553              	.LCFI8:
 554              		.loc 1 359 0
 555 0344 18308DE2 		add	r3, sp, #24
 556              		.loc 1 356 0
 557 0348 14609DE5 		ldr	r6, [sp, #20]
 558              		.loc 1 360 0
 559 034c 0350A0E1 		mov	r5, r3
 560              	.LVL41:
 561              		.loc 1 359 0
 562 0350 00308DE5 		str	r3, [sp, #0]
 563              	.LVL42:
 564 0354 020000EA 		b	.L138
 565              	.LVL43:
 566              	.L101:
 567              	.LBB16:
 568              	.LBB17:
 569              		.loc 1 106 0
 570 0358 000050E3 		cmp	r0, #0
 571 035c 5000000A 		beq	.L128
 572              	.LVL44:
 573              	.L136:
 574              		.loc 1 108 0
 575 0360 FEFFFFEB 		bl	consolSendCh
ARM GAS  /cygdrive/c/Users/embedded/AppData/Local/Temp/ccelz1ts.s 			page 19


 576              	.LVL45:
 577              	.L138:
 578              		.loc 1 104 0
 579 0364 0100D6E4 		ldrb	r0, [r6], #1	@ zero_extendqisi2
 580              	.LVL46:
 581 0368 250050E3 		cmp	r0, #37
 582 036c F9FFFF1A 		bne	.L101
 583 0370 0030A0E3 		mov	r3, #0
 584              	.LVL47:
 585              	.L105:
 586              		.loc 1 114 0
 587 0374 0140D6E4 		ldrb	r4, [r6], #1	@ zero_extendqisi2
 588              	.LVL48:
 589 0378 6F0054E3 		cmp	r4, #111
 590 037c 3000000A 		beq	.L110
 591 0380 0A00008A 		bhi	.L115
 592 0384 640054E3 		cmp	r4, #100
 593 0388 2100000A 		beq	.L108
 594 038c 0400008A 		bhi	.L116
 595 0390 000054E3 		cmp	r4, #0
 596 0394 4200000A 		beq	.L128
 597 0398 630054E3 		cmp	r4, #99
 598 039c 3B00001A 		bne	.L106
 599 03a0 0F0000EA 		b	.L107
 600              	.L116:
 601 03a4 6C0054E3 		cmp	r4, #108
 602 03a8 3800001A 		bne	.L106
 603 03ac 0A0000EA 		b	.L109
 604              	.L115:
 605 03b0 730054E3 		cmp	r4, #115
 606 03b4 0E00000A 		beq	.L112
 607 03b8 0200008A 		bhi	.L117
 608 03bc 700054E3 		cmp	r4, #112
 609 03c0 3200001A 		bne	.L106
 610 03c4 290000EA 		b	.L111
 611              	.L117:
 612 03c8 750054E3 		cmp	r4, #117
 613 03cc 2300000A 		beq	.L113
 614 03d0 780054E3 		cmp	r4, #120
 615 03d4 2D00001A 		bne	.L106
 616 03d8 280000EA 		b	.L114
 617              	.L109:
 618 03dc 0130A0E3 		mov	r3, #1
 619 03e0 E3FFFFEA 		b	.L105
 620              	.L107:
 621              		.loc 1 125 0
 622 03e4 000095E5 		ldr	r0, [r5, #0]
 623              	.LVL49:
 624 03e8 7F0000E2 		and	r0, r0, #127
 625 03ec FEFFFFEB 		bl	consolSendCh
 626              	.LVL50:
 627 03f0 170000EA 		b	.L135
 628              	.LVL51:
 629              	.L112:
 630              		.loc 1 129 0
 631 03f4 004095E5 		ldr	r4, [r5, #0]
 632              	.LVL52:
ARM GAS  /cygdrive/c/Users/embedded/AppData/Local/Temp/ccelz1ts.s 			page 20


 633 03f8 000000EA 		b	.L118
 634              	.LVL53:
 635              	.L119:
 636              		.loc 1 131 0
 637 03fc FEFFFFEB 		bl	consolSendCh
 638              	.LVL54:
 639              	.L118:
 640              		.loc 1 130 0
 641 0400 0130D4E4 		ldrb	r3, [r4], #1	@ zero_extendqisi2
 642              	.LVL55:
 643 0404 000053E2 		subs	r0, r3, #0
 644              	.LVL56:
 645 0408 FBFFFF1A 		bne	.L119
 646              	.LVL57:
 647              		.loc 1 129 0
 648 040c 045085E2 		add	r5, r5, #4
 649 0410 D3FFFFEA 		b	.L138
 650              	.LVL58:
 651              	.L108:
 652              		.loc 1 135 0
 653 0414 004095E5 		ldr	r4, [r5, #0]
 654              	.LVL59:
 655              		.loc 1 136 0
 656 0418 000054E3 		cmp	r4, #0
 657 041c 045085E2 		add	r5, r5, #4
 658              	.LVL60:
 659 0420 020000AA 		bge	.L124
 660              		.loc 1 138 0
 661 0424 2D00A0E3 		mov	r0, #45
 662              	.LVL61:
 663 0428 FEFFFFEB 		bl	consolSendCh
 664              	.LVL62:
 665              		.loc 1 139 0
 666 042c 004064E2 		rsb	r4, r4, #0
 667              	.LVL63:
 668              	.L124:
 669              		.loc 1 141 0
 670 0430 0410A0E1 		mov	r1, r4
 671 0434 78009FE5 		ldr	r0, .L139
 672              	.LVL64:
 673 0438 0A20A0E3 		mov	r2, #10
 674 043c EFFEFFEB 		bl	printNum
 675              	.LVL65:
 676 0440 C7FFFFEA 		b	.L138
 677              	.LVL66:
 678              	.L110:
 679              		.loc 1 146 0
 680 0444 001095E5 		ldr	r1, [r5, #0]
 681 0448 64009FE5 		ldr	r0, .L139
 682              	.LVL67:
 683 044c 0820A0E3 		mov	r2, #8
 684              	.L137:
 685 0450 EAFEFFEB 		bl	printNum
 686              	.LVL68:
 687              	.L135:
 688              		.loc 1 145 0
 689 0454 043085E2 		add	r3, r5, #4
ARM GAS  /cygdrive/c/Users/embedded/AppData/Local/Temp/ccelz1ts.s 			page 21


 690              	.LVL69:
 691              		.loc 1 146 0
 692 0458 0350A0E1 		mov	r5, r3
 693 045c C0FFFFEA 		b	.L138
 694              	.LVL70:
 695              	.L113:
 696              		.loc 1 151 0
 697 0460 001095E5 		ldr	r1, [r5, #0]
 698 0464 48009FE5 		ldr	r0, .L139
 699              	.LVL71:
 700 0468 0A20A0E3 		mov	r2, #10
 701 046c F7FFFFEA 		b	.L137
 702              	.LVL72:
 703              	.L111:
 704              		.loc 1 155 0
 705 0470 3000A0E3 		mov	r0, #48
 706              	.LVL73:
 707 0474 FEFFFFEB 		bl	consolSendCh
 708              	.LVL74:
 709              		.loc 1 156 0
 710 0478 7800A0E3 		mov	r0, #120
 711 047c FEFFFFEB 		bl	consolSendCh
 712              	.LVL75:
 713              	.L114:
 714              		.loc 1 162 0
 715 0480 001095E5 		ldr	r1, [r5, #0]
 716 0484 28009FE5 		ldr	r0, .L139
 717              	.LVL76:
 718 0488 1020A0E3 		mov	r2, #16
 719 048c EFFFFFEA 		b	.L137
 720              	.LVL77:
 721              	.L106:
 722              		.loc 1 167 0
 723 0490 000053E3 		cmp	r3, #0
 724              		.loc 1 168 0
 725 0494 6C00A013 		movne	r0, #108
 726              	.LVL78:
 727 0498 FEFFFF1B 		blne	consolSendCh
 728              	.LVL79:
 729              	.L126:
 730              		.loc 1 169 0
 731 049c 0400A0E1 		mov	r0, r4
 732              	.LVL80:
 733 04a0 AEFFFFEA 		b	.L136
 734              	.LVL81:
 735              	.L128:
 736              	.LBE17:
 737              	.LBE16:
 738              		.loc 1 362 0
 739 04a4 04D08DE2 		add	sp, sp, #4
 740 04a8 7040BDE8 		ldmfd	sp!, {r4, r5, r6, lr}
 741 04ac 10D08DE2 		add	sp, sp, #16
 742 04b0 1EFF2FE1 		bx	lr
 743              	.L140:
 744              		.align	2
 745              	.L139:
 746 04b4 00000000 		.word	consolSendCh
ARM GAS  /cygdrive/c/Users/embedded/AppData/Local/Temp/ccelz1ts.s 			page 22


 747              	.LFE9:
 748              		.size	simplePrintf, .-simplePrintf
 749              		.align	2
 750              		.global	consolGetIntNum
 751              		.type	consolGetIntNum, %function
 752              	consolGetIntNum:
 753              	.LFB13:
 444:consol.c      **** 
 445:consol.c      **** /*****************************************************************************
 446:consol.c      ****  *
 447:consol.c      ****  * Description:
 448:consol.c      ****  *    Receive (blocking call) a number (end with '\r').
 449:consol.c      ****  *    Accepts hexadecimal (radix 16) and integer (radix 10) numbers.
 450:consol.c      ****  *
 451:consol.c      ****  * Returns:
 452:consol.c      ****  *    int - the received number
 453:consol.c      ****  *
 454:consol.c      ****  ****************************************************************************/
 455:consol.c      **** int
 456:consol.c      **** consolGetIntNum(void)
 457:consol.c      **** {
 754              		.loc 1 457 0
 755              		@ Function supports interworking.
 756              		@ args = 0, pretend = 0, frame = 32
 757              		@ frame_needed = 0, uses_anonymous_args = 0
 758 04b8 70402DE9 		stmfd	sp!, {r4, r5, r6, lr}
 759              	.LCFI9:
 760 04bc 20D04DE2 		sub	sp, sp, #32
 761              	.LCFI10:
 458:consol.c      ****   char  abStr[30];
 459:consol.c      ****   char *pString = abStr;
 460:consol.c      ****   int   wBase=10;
 461:consol.c      ****   int   wMinus=0;
 462:consol.c      ****   int   wLastIndex;
 463:consol.c      ****   int   wResult=0;
 464:consol.c      ****   int   wI;
 465:consol.c      ****         
 466:consol.c      ****   consolGetString(pString);
 762              		.loc 1 466 0
 763 04c0 02408DE2 		add	r4, sp, #2
 764 04c4 0400A0E1 		mov	r0, r4
 765 04c8 FEFFFFEB 		bl	consolGetString
 467:consol.c      ****         
 468:consol.c      ****   if(pString[0] == '-')
 766              		.loc 1 468 0
 767 04cc 0230DDE5 		ldrb	r3, [sp, #2]	@ zero_extendqisi2
 768 04d0 2D0053E3 		cmp	r3, #45
 769 04d4 01408402 		addeq	r4, r4, #1
 770              	.LVL82:
 469:consol.c      ****   {
 470:consol.c      ****     wMinus = 1;
 471:consol.c      ****     pString++;
 472:consol.c      ****   }
 473:consol.c      **** 
 474:consol.c      ****   if(pString[0] == '0' && (pString[1] == 'x' || pString[1] == 'X'))
 771              		.loc 1 474 0
 772 04d8 0030D4E5 		ldrb	r3, [r4, #0]	@ zero_extendqisi2
ARM GAS  /cygdrive/c/Users/embedded/AppData/Local/Temp/ccelz1ts.s 			page 23


 773              		.loc 1 468 0
 774 04dc 0160A003 		moveq	r6, #1
 775              	.LVL83:
 776 04e0 0060A013 		movne	r6, #0
 777              		.loc 1 474 0
 778 04e4 300053E3 		cmp	r3, #48
 779 04e8 0500001A 		bne	.L145
 780 04ec 0130D4E5 		ldrb	r3, [r4, #1]	@ zero_extendqisi2
 781 04f0 580053E3 		cmp	r3, #88
 782 04f4 78005313 		cmpne	r3, #120
 475:consol.c      ****   {
 476:consol.c      ****     wBase = 16;
 477:consol.c      ****     pString += 2;
 783              		.loc 1 477 0
 784 04f8 02408402 		addeq	r4, r4, #2
 785 04fc 1050A003 		moveq	r5, #16
 786              	.LVL84:
 787              		.loc 1 474 0
 788 0500 0000000A 		beq	.L148
 789              	.L145:
 790              		.loc 1 477 0
 791 0504 0A50A0E3 		mov	r5, #10
 792              	.L148:
 478:consol.c      ****   }
 479:consol.c      **** 
 480:consol.c      ****   wLastIndex = strlen(pString) - 1;
 793              		.loc 1 480 0
 794 0508 0400A0E1 		mov	r0, r4
 795 050c FEFFFFEB 		bl	strlen
 796 0510 01C040E2 		sub	ip, r0, #1
 797              	.LVL85:
 481:consol.c      ****   if(pString[wLastIndex] == 'h' || pString[wLastIndex] == 'H')
 798              		.loc 1 481 0
 799 0514 0C30D4E7 		ldrb	r3, [r4, ip]	@ zero_extendqisi2
 800 0518 480053E3 		cmp	r3, #72
 801 051c 68005313 		cmpne	r3, #104
 802 0520 0500001A 		bne	.L149
 482:consol.c      ****   {
 483:consol.c      ****     wBase = 16;
 484:consol.c      ****     pString[wLastIndex] = 0;
 803              		.loc 1 484 0
 804 0524 0030A0E3 		mov	r3, #0
 805 0528 0C30C4E7 		strb	r3, [r4, ip]
 485:consol.c      ****     wLastIndex--;
 806              		.loc 1 485 0
 807 052c 01C04CE2 		sub	ip, ip, #1
 808              	.L151:
 809 0530 0000A0E3 		mov	r0, #0
 810              	.LVL86:
 811 0534 00E0A0E1 		mov	lr, r0
 812              	.LVL87:
 813 0538 0F0000EA 		b	.L152
 814              	.LVL88:
 815              	.L149:
 486:consol.c      ****   }
 487:consol.c      **** 
 488:consol.c      ****   if(wBase == 10)
ARM GAS  /cygdrive/c/Users/embedded/AppData/Local/Temp/ccelz1ts.s 			page 24


 816              		.loc 1 488 0
 817 053c 0A0055E3 		cmp	r5, #10
 818 0540 FAFFFF1A 		bne	.L151
 489:consol.c      ****   {
 490:consol.c      ****     wResult = atoi(pString);
 819              		.loc 1 490 0
 820 0544 0400A0E1 		mov	r0, r4
 821 0548 FEFFFFEB 		bl	atoi
 822              	.LVL89:
 823 054c 0C0000EA 		b	.L166
 824              	.LVL90:
 825              	.L156:
 491:consol.c      ****     wResult = wMinus ? (-1*wResult):wResult;
 492:consol.c      ****   }
 493:consol.c      ****   else
 494:consol.c      ****   {
 495:consol.c      ****     for(wI=0; wI<=wLastIndex; wI++)
 496:consol.c      ****     {
 497:consol.c      ****       if(__isalpha(pString[wI]))
 826              		.loc 1 497 0
 827 0550 0420DEE7 		ldrb	r2, [lr, r4]	@ zero_extendqisi2
 828 0554 0012A0E1 		mov	r1, r0, asl #4
 829 0558 390052E3 		cmp	r2, #57
 498:consol.c      ****       {
 499:consol.c      ****         if(__isupper(pString[wI]))
 500:consol.c      ****           wResult = (wResult<<4) + pString[wI] - 'A' + 10;
 501:consol.c      ****         else
 502:consol.c      ****           wResult = (wResult<<4) + pString[wI] - 'a' + 10;
 503:consol.c      ****       }
 504:consol.c      ****       else
 505:consol.c      ****       {
 506:consol.c      ****         wResult = (wResult<<4) + pString[wI] - '0';
 830              		.loc 1 506 0
 831 055c 000282E0 		add	r0, r2, r0, asl #4
 832              	.LVL91:
 833 0560 30004092 		subls	r0, r0, #48
 834              	.LVL92:
 835              		.loc 1 497 0
 836 0564 0300009A 		bls	.L161
 837              		.loc 1 500 0
 838 0568 023081E0 		add	r3, r1, r2
 839              		.loc 1 499 0
 840 056c 200012E3 		tst	r2, #32
 841              		.loc 1 500 0
 842 0570 370043E2 		sub	r0, r3, #55
 843              		.loc 1 502 0
 844 0574 57004312 		subne	r0, r3, #87
 845              	.L161:
 846              		.loc 1 495 0
 847 0578 01E08EE2 		add	lr, lr, #1
 848              	.L152:
 849 057c 0C005EE1 		cmp	lr, ip
 850 0580 F2FFFFDA 		ble	.L156
 851              	.L166:
 507:consol.c      ****       }
 508:consol.c      ****     }
 509:consol.c      ****     wResult = wMinus ? (-1*wResult):wResult;
ARM GAS  /cygdrive/c/Users/embedded/AppData/Local/Temp/ccelz1ts.s 			page 25


 852              		.loc 1 509 0
 853 0584 000056E3 		cmp	r6, #0
 854 0588 00006012 		rsbne	r0, r0, #0
 855              	.LVL93:
 510:consol.c      ****   }
 511:consol.c      ****   return wResult;
 512:consol.c      **** }
 856              		.loc 1 512 0
 857 058c 20D08DE2 		add	sp, sp, #32
 858 0590 7040BDE8 		ldmfd	sp!, {r4, r5, r6, lr}
 859 0594 1EFF2FE1 		bx	lr
 860              	.LFE13:
 861              		.size	consolGetIntNum, .-consolGetIntNum
 862              		.align	2
 863              		.global	consolScanf
 864              		.type	consolScanf, %function
 865              	consolScanf:
 866              	.LFB14:
 513:consol.c      **** 
 514:consol.c      **** /*****************************************************************************
 515:consol.c      ****  *
 516:consol.c      ****  * Description:
 517:consol.c      ****  *    A simple implementation of the scanf()-function. 
 518:consol.c      ****  *
 519:consol.c      ****  * Params:
 520:consol.c      ****  *    [inout] pFmt - format string, accepts:
 521:consol.c      ****  *                   %s - string
 522:consol.c      ****  *                   %c - character
 523:consol.c      ****  *                   %i - integer
 524:consol.c      ****  *
 525:consol.c      ****  ****************************************************************************/
 526:consol.c      **** void
 527:consol.c      **** consolScanf(char *pFmt, ...)
 528:consol.c      **** {
 867              		.loc 1 528 0
 868              		@ Function supports interworking.
 869              		@ args = 4, pretend = 16, frame = 4
 870              		@ frame_needed = 0, uses_anonymous_args = 1
 871              	.LVL94:
 872 0598 0F002DE9 		stmfd	sp!, {r0, r1, r2, r3}
 873              	.LCFI11:
 874 059c 30402DE9 		stmfd	sp!, {r4, r5, lr}
 875              	.LCFI12:
 876 05a0 04D04DE2 		sub	sp, sp, #4
 877              	.LCFI13:
 878              		.loc 1 528 0
 879 05a4 10509DE5 		ldr	r5, [sp, #16]
 529:consol.c      ****   va_list pArg;
 530:consol.c      ****   char    character;
 531:consol.c      ****   int    *pInt;
 532:consol.c      ****   char   *pChar;
 533:consol.c      ****         
 534:consol.c      ****   va_start(pArg, pFmt);
 880              		.loc 1 534 0
 881 05a8 14308DE2 		add	r3, sp, #20
 882 05ac 00308DE5 		str	r3, [sp, #0]
 883              	.LVL95:
ARM GAS  /cygdrive/c/Users/embedded/AppData/Local/Temp/ccelz1ts.s 			page 26


 884 05b0 290000EA 		b	.L187
 885              	.LVL96:
 886              	.L169:
 535:consol.c      ****   while((character = *pFmt++) != '\0')
 536:consol.c      ****   {
 537:consol.c      ****     if(character != '%')continue;
 887              		.loc 1 537 0
 888 05b4 250053E3 		cmp	r3, #37
 889              		.loc 1 535 0
 890 05b8 015085E2 		add	r5, r5, #1
 891              		.loc 1 537 0
 892 05bc 2600001A 		bne	.L187
 538:consol.c      ****     switch(*pFmt)
 893              		.loc 1 538 0
 894 05c0 0030D5E5 		ldrb	r3, [r5, #0]	@ zero_extendqisi2
 895              	.LVL97:
 896 05c4 530053E3 		cmp	r3, #83
 897 05c8 0C00000A 		beq	.L173
 898 05cc 0400008A 		bhi	.L174
 899 05d0 430053E3 		cmp	r3, #67
 900 05d4 1600000A 		beq	.L171
 901 05d8 490053E3 		cmp	r3, #73
 902 05dc 1E00001A 		bne	.L187
 903 05e0 0C0000EA 		b	.L172
 904              	.L174:
 905 05e4 690053E3 		cmp	r3, #105
 906 05e8 0A00000A 		beq	.L172
 907 05ec 730053E3 		cmp	r3, #115
 908 05f0 0200000A 		beq	.L173
 909 05f4 630053E3 		cmp	r3, #99
 910 05f8 1700001A 		bne	.L187
 911 05fc 0C0000EA 		b	.L171
 912              	.L173:
 539:consol.c      ****     {
 540:consol.c      ****     case 's':
 541:consol.c      ****     case 'S':
 542:consol.c      ****       pChar = va_arg (pArg, char *);
 913              		.loc 1 542 0
 914 0600 00309DE5 		ldr	r3, [sp, #0]
 543:consol.c      ****       consolGetString(pChar);
 915              		.loc 1 543 0
 916 0604 000093E5 		ldr	r0, [r3, #0]
 917              		.loc 1 542 0
 918 0608 043083E2 		add	r3, r3, #4
 919 060c 00308DE5 		str	r3, [sp, #0]
 920              		.loc 1 543 0
 921 0610 FEFFFFEB 		bl	consolGetString
 922              	.LVL98:
 923 0614 100000EA 		b	.L187
 924              	.LVL99:
 925              	.L172:
 544:consol.c      ****       break;
 545:consol.c      ****     case 'i':
 546:consol.c      ****     case 'I':
 547:consol.c      ****       pInt  = va_arg (pArg, int *);
 926              		.loc 1 547 0
 927 0618 00309DE5 		ldr	r3, [sp, #0]
ARM GAS  /cygdrive/c/Users/embedded/AppData/Local/Temp/ccelz1ts.s 			page 27


 928 061c 042083E2 		add	r2, r3, #4
 929              	.LVL100:
 930 0620 004093E5 		ldr	r4, [r3, #0]
 931 0624 00208DE5 		str	r2, [sp, #0]
 548:consol.c      ****       *pInt = consolGetIntNum();
 932              		.loc 1 548 0
 933 0628 FEFFFFEB 		bl	consolGetIntNum
 934 062c 000084E5 		str	r0, [r4, #0]
 935 0630 090000EA 		b	.L187
 936              	.LVL101:
 937              	.L171:
 549:consol.c      ****       break;
 550:consol.c      ****     case 'c':
 551:consol.c      ****     case 'C':
 552:consol.c      ****       pChar  = va_arg (pArg, char *);
 938              		.loc 1 552 0
 939 0634 00209DE5 		ldr	r2, [sp, #0]
 940              	.LVL102:
 941 0638 043082E2 		add	r3, r2, #4
 942 063c 00308DE5 		str	r3, [sp, #0]
 943 0640 002092E5 		ldr	r2, [r2, #0]
 944              	.LVL103:
 945              	.L175:
 946              	.LBB20:
 947              	.LBB21:
 948              		.loc 1 380 0
 949 0644 2C109FE5 		ldr	r1, .L188
 950 0648 143091E5 		ldr	r3, [r1, #20]
 951 064c 010013E3 		tst	r3, #1
 952 0650 FBFFFF0A 		beq	.L175
 953              		.loc 1 382 0
 954 0654 003091E5 		ldr	r3, [r1, #0]
 955              	.LBE21:
 956              	.LBE20:
 553:consol.c      ****       *pChar = consolGetCh();
 957              		.loc 1 553 0
 958 0658 0030C2E5 		strb	r3, [r2, #0]
 959              	.LVL104:
 960              	.L187:
 961              		.loc 1 535 0
 962 065c 0030D5E5 		ldrb	r3, [r5, #0]	@ zero_extendqisi2
 963 0660 000053E3 		cmp	r3, #0
 964 0664 D2FFFF1A 		bne	.L169
 554:consol.c      ****       break;
 555:consol.c      ****     }
 556:consol.c      ****   }
 557:consol.c      ****   va_end(pArg);
 558:consol.c      **** }
 965              		.loc 1 558 0
 966 0668 04D08DE2 		add	sp, sp, #4
 967 066c 3040BDE8 		ldmfd	sp!, {r4, r5, lr}
 968 0670 10D08DE2 		add	sp, sp, #16
 969 0674 1EFF2FE1 		bx	lr
 970              	.L189:
 971              		.align	2
 972              	.L188:
 973 0678 00C000E0 		.word	-536821760
ARM GAS  /cygdrive/c/Users/embedded/AppData/Local/Temp/ccelz1ts.s 			page 28


 974              	.LFE14:
 975              		.size	consolScanf, .-consolScanf
 976              		.section	.rodata
 977              		.align	2
 978              		.type	hexChars.2029, %object
 979              		.size	hexChars.2029, 16
 980              	hexChars.2029:
 981 0000 30313233 		.ascii	"0123456789ABCDEF"
 981      34353637 
 981      38394142 
 981      43444546 
 982              		.section	.debug_frame,"",%progbits
 983              	.Lframe0:
 984 0000 0C000000 		.4byte	.LECIE0-.LSCIE0
 985              	.LSCIE0:
 986 0004 FFFFFFFF 		.4byte	0xffffffff
 987 0008 01       		.byte	0x1
 988 0009 00       		.ascii	"\000"
 989 000a 01       		.uleb128 0x1
 990 000b 7C       		.sleb128 -4
 991 000c 0E       		.byte	0xe
 992 000d 0C       		.byte	0xc
 993 000e 0D       		.uleb128 0xd
 994 000f 00       		.uleb128 0x0
 995              		.align	2
 996              	.LECIE0:
 997              	.LSFDE0:
 998 0010 1C000000 		.4byte	.LEFDE0-.LASFDE0
 999              	.LASFDE0:
 1000 0014 00000000 		.4byte	.Lframe0
 1001 0018 00000000 		.4byte	.LFB2
 1002 001c 84000000 		.4byte	.LFE2-.LFB2
 1003 0020 44       		.byte	0x4
 1004              		.4byte	.LCFI0-.LFB2
 1005 0021 0E       		.byte	0xe
 1006 0022 14       		.uleb128 0x14
 1007 0023 44       		.byte	0x4
 1008              		.4byte	.LCFI1-.LCFI0
 1009 0024 0E       		.byte	0xe
 1010 0025 48       		.uleb128 0x48
 1011 0026 8E       		.byte	0x8e
 1012 0027 01       		.uleb128 0x1
 1013 0028 87       		.byte	0x87
 1014 0029 02       		.uleb128 0x2
 1015 002a 86       		.byte	0x86
 1016 002b 03       		.uleb128 0x3
 1017 002c 85       		.byte	0x85
 1018 002d 04       		.uleb128 0x4
 1019 002e 84       		.byte	0x84
 1020 002f 05       		.uleb128 0x5
 1021              		.align	2
 1022              	.LEFDE0:
 1023              	.LSFDE2:
 1024 0030 0C000000 		.4byte	.LEFDE2-.LASFDE2
 1025              	.LASFDE2:
 1026 0034 00000000 		.4byte	.Lframe0
 1027 0038 84000000 		.4byte	.LFB4
ARM GAS  /cygdrive/c/Users/embedded/AppData/Local/Temp/ccelz1ts.s 			page 29


 1028 003c 50000000 		.4byte	.LFE4-.LFB4
 1029              		.align	2
 1030              	.LEFDE2:
 1031              	.LSFDE4:
 1032 0040 0C000000 		.4byte	.LEFDE4-.LASFDE4
 1033              	.LASFDE4:
 1034 0044 00000000 		.4byte	.Lframe0
 1035 0048 D4000000 		.4byte	.LFB5
 1036 004c 20000000 		.4byte	.LFE5-.LFB5
 1037              		.align	2
 1038              	.LEFDE4:
 1039              	.LSFDE6:
 1040 0050 0C000000 		.4byte	.LEFDE6-.LASFDE6
 1041              	.LASFDE6:
 1042 0054 00000000 		.4byte	.Lframe0
 1043 0058 F4000000 		.4byte	.LFB6
 1044 005c 44000000 		.4byte	.LFE6-.LFB6
 1045              		.align	2
 1046              	.LEFDE6:
 1047              	.LSFDE8:
 1048 0060 14000000 		.4byte	.LEFDE8-.LASFDE8
 1049              	.LASFDE8:
 1050 0064 00000000 		.4byte	.Lframe0
 1051 0068 38010000 		.4byte	.LFB7
 1052 006c 2C000000 		.4byte	.LFE7-.LFB7
 1053 0070 44       		.byte	0x4
 1054              		.4byte	.LCFI2-.LFB7
 1055 0071 0E       		.byte	0xe
 1056 0072 08       		.uleb128 0x8
 1057 0073 8E       		.byte	0x8e
 1058 0074 01       		.uleb128 0x1
 1059 0075 84       		.byte	0x84
 1060 0076 02       		.uleb128 0x2
 1061 0077 00       		.align	2
 1062              	.LEFDE8:
 1063              	.LSFDE10:
 1064 0078 24000000 		.4byte	.LEFDE10-.LASFDE10
 1065              	.LASFDE10:
 1066 007c 00000000 		.4byte	.Lframe0
 1067 0080 64010000 		.4byte	.LFB8
 1068 0084 18010000 		.4byte	.LFE8-.LFB8
 1069 0088 44       		.byte	0x4
 1070              		.4byte	.LCFI3-.LFB8
 1071 0089 0E       		.byte	0xe
 1072 008a 24       		.uleb128 0x24
 1073 008b 44       		.byte	0x4
 1074              		.4byte	.LCFI4-.LCFI3
 1075 008c 0E       		.byte	0xe
 1076 008d 44       		.uleb128 0x44
 1077 008e 8E       		.byte	0x8e
 1078 008f 01       		.uleb128 0x1
 1079 0090 8B       		.byte	0x8b
 1080 0091 02       		.uleb128 0x2
 1081 0092 8A       		.byte	0x8a
 1082 0093 03       		.uleb128 0x3
 1083 0094 89       		.byte	0x89
 1084 0095 04       		.uleb128 0x4
ARM GAS  /cygdrive/c/Users/embedded/AppData/Local/Temp/ccelz1ts.s 			page 30


 1085 0096 88       		.byte	0x88
 1086 0097 05       		.uleb128 0x5
 1087 0098 87       		.byte	0x87
 1088 0099 06       		.uleb128 0x6
 1089 009a 86       		.byte	0x86
 1090 009b 07       		.uleb128 0x7
 1091 009c 85       		.byte	0x85
 1092 009d 08       		.uleb128 0x8
 1093 009e 84       		.byte	0x84
 1094 009f 09       		.uleb128 0x9
 1095              		.align	2
 1096              	.LEFDE10:
 1097              	.LSFDE12:
 1098 00a0 0C000000 		.4byte	.LEFDE12-.LASFDE12
 1099              	.LASFDE12:
 1100 00a4 00000000 		.4byte	.Lframe0
 1101 00a8 7C020000 		.4byte	.LFB10
 1102 00ac 20000000 		.4byte	.LFE10-.LFB10
 1103              		.align	2
 1104              	.LEFDE12:
 1105              	.LSFDE14:
 1106 00b0 0C000000 		.4byte	.LEFDE14-.LASFDE14
 1107              	.LASFDE14:
 1108 00b4 00000000 		.4byte	.Lframe0
 1109 00b8 9C020000 		.4byte	.LFB11
 1110 00bc 24000000 		.4byte	.LFE11-.LFB11
 1111              		.align	2
 1112              	.LEFDE14:
 1113              	.LSFDE16:
 1114 00c0 18000000 		.4byte	.LEFDE16-.LASFDE16
 1115              	.LASFDE16:
 1116 00c4 00000000 		.4byte	.Lframe0
 1117 00c8 C0020000 		.4byte	.LFB12
 1118 00cc 78000000 		.4byte	.LFE12-.LFB12
 1119 00d0 44       		.byte	0x4
 1120              		.4byte	.LCFI5-.LFB12
 1121 00d1 0E       		.byte	0xe
 1122 00d2 0C       		.uleb128 0xc
 1123 00d3 8E       		.byte	0x8e
 1124 00d4 01       		.uleb128 0x1
 1125 00d5 85       		.byte	0x85
 1126 00d6 02       		.uleb128 0x2
 1127 00d7 84       		.byte	0x84
 1128 00d8 03       		.uleb128 0x3
 1129 00d9 000000   		.align	2
 1130              	.LEFDE16:
 1131              	.LSFDE18:
 1132 00dc 28000000 		.4byte	.LEFDE18-.LASFDE18
 1133              	.LASFDE18:
 1134 00e0 00000000 		.4byte	.Lframe0
 1135 00e4 38030000 		.4byte	.LFB9
 1136 00e8 80010000 		.4byte	.LFE9-.LFB9
 1137 00ec 44       		.byte	0x4
 1138              		.4byte	.LCFI6-.LFB9
 1139 00ed 0E       		.byte	0xe
 1140 00ee 10       		.uleb128 0x10
 1141 00ef 44       		.byte	0x4
ARM GAS  /cygdrive/c/Users/embedded/AppData/Local/Temp/ccelz1ts.s 			page 31


 1142              		.4byte	.LCFI7-.LCFI6
 1143 00f0 0E       		.byte	0xe
 1144 00f1 20       		.uleb128 0x20
 1145 00f2 44       		.byte	0x4
 1146              		.4byte	.LCFI8-.LCFI7
 1147 00f3 0E       		.byte	0xe
 1148 00f4 24       		.uleb128 0x24
 1149 00f5 8E       		.byte	0x8e
 1150 00f6 05       		.uleb128 0x5
 1151 00f7 86       		.byte	0x86
 1152 00f8 06       		.uleb128 0x6
 1153 00f9 85       		.byte	0x85
 1154 00fa 07       		.uleb128 0x7
 1155 00fb 84       		.byte	0x84
 1156 00fc 08       		.uleb128 0x8
 1157 00fd 83       		.byte	0x83
 1158 00fe 01       		.uleb128 0x1
 1159 00ff 82       		.byte	0x82
 1160 0100 02       		.uleb128 0x2
 1161 0101 81       		.byte	0x81
 1162 0102 03       		.uleb128 0x3
 1163 0103 80       		.byte	0x80
 1164 0104 04       		.uleb128 0x4
 1165 0105 000000   		.align	2
 1166              	.LEFDE18:
 1167              	.LSFDE20:
 1168 0108 1C000000 		.4byte	.LEFDE20-.LASFDE20
 1169              	.LASFDE20:
 1170 010c 00000000 		.4byte	.Lframe0
 1171 0110 B8040000 		.4byte	.LFB13
 1172 0114 E0000000 		.4byte	.LFE13-.LFB13
 1173 0118 44       		.byte	0x4
 1174              		.4byte	.LCFI9-.LFB13
 1175 0119 0E       		.byte	0xe
 1176 011a 10       		.uleb128 0x10
 1177 011b 44       		.byte	0x4
 1178              		.4byte	.LCFI10-.LCFI9
 1179 011c 0E       		.byte	0xe
 1180 011d 30       		.uleb128 0x30
 1181 011e 8E       		.byte	0x8e
 1182 011f 01       		.uleb128 0x1
 1183 0120 86       		.byte	0x86
 1184 0121 02       		.uleb128 0x2
 1185 0122 85       		.byte	0x85
 1186 0123 03       		.uleb128 0x3
 1187 0124 84       		.byte	0x84
 1188 0125 04       		.uleb128 0x4
 1189 0126 0000     		.align	2
 1190              	.LEFDE20:
 1191              	.LSFDE22:
 1192 0128 24000000 		.4byte	.LEFDE22-.LASFDE22
 1193              	.LASFDE22:
 1194 012c 00000000 		.4byte	.Lframe0
 1195 0130 98050000 		.4byte	.LFB14
 1196 0134 E4000000 		.4byte	.LFE14-.LFB14
 1197 0138 44       		.byte	0x4
 1198              		.4byte	.LCFI11-.LFB14
ARM GAS  /cygdrive/c/Users/embedded/AppData/Local/Temp/ccelz1ts.s 			page 32


 1199 0139 0E       		.byte	0xe
 1200 013a 10       		.uleb128 0x10
 1201 013b 44       		.byte	0x4
 1202              		.4byte	.LCFI12-.LCFI11
 1203 013c 0E       		.byte	0xe
 1204 013d 1C       		.uleb128 0x1c
 1205 013e 44       		.byte	0x4
 1206              		.4byte	.LCFI13-.LCFI12
 1207 013f 0E       		.byte	0xe
 1208 0140 20       		.uleb128 0x20
 1209 0141 8E       		.byte	0x8e
 1210 0142 05       		.uleb128 0x5
 1211 0143 85       		.byte	0x85
 1212 0144 06       		.uleb128 0x6
 1213 0145 84       		.byte	0x84
 1214 0146 07       		.uleb128 0x7
 1215 0147 83       		.byte	0x83
 1216 0148 01       		.uleb128 0x1
 1217 0149 82       		.byte	0x82
 1218 014a 02       		.uleb128 0x2
 1219 014b 81       		.byte	0x81
 1220 014c 03       		.uleb128 0x3
 1221 014d 80       		.byte	0x80
 1222 014e 04       		.uleb128 0x4
 1223 014f 00       		.align	2
 1224              	.LEFDE22:
 1225              		.file 2 "/cygdrive/c/Embedded/GNUARM/bin/../lib/gcc/arm-elf/4.1.1/include/stdarg.h"
 1226              		.text
 1227              	.Letext0:
 1228              		.section	.debug_loc,"",%progbits
 1229              	.Ldebug_loc0:
 1230              	.LLST0:
 1231 0000 00000000 		.4byte	.LFB2-.Ltext0
 1232 0004 04000000 		.4byte	.LCFI0-.Ltext0
 1233 0008 0100     		.2byte	0x1
 1234 000a 5D       		.byte	0x5d
 1235 000b 04000000 		.4byte	.LCFI0-.Ltext0
 1236 000f 08000000 		.4byte	.LCFI1-.Ltext0
 1237 0013 0200     		.2byte	0x2
 1238 0015 7D       		.byte	0x7d
 1239 0016 14       		.sleb128 20
 1240 0017 08000000 		.4byte	.LCFI1-.Ltext0
 1241 001b 84000000 		.4byte	.LFE2-.Ltext0
 1242 001f 0300     		.2byte	0x3
 1243 0021 7D       		.byte	0x7d
 1244 0022 C800     		.sleb128 72
 1245 0024 00000000 		.4byte	0x0
 1246 0028 00000000 		.4byte	0x0
 1247              	.LLST1:
 1248 002c 00000000 		.4byte	.LVL0-.Ltext0
 1249 0030 18000000 		.4byte	.LVL1-.Ltext0
 1250 0034 0100     		.2byte	0x1
 1251 0036 50       		.byte	0x50
 1252 0037 18000000 		.4byte	.LVL1-.Ltext0
 1253 003b 84000000 		.4byte	.LFE2-.Ltext0
 1254 003f 0100     		.2byte	0x1
 1255 0041 57       		.byte	0x57
ARM GAS  /cygdrive/c/Users/embedded/AppData/Local/Temp/ccelz1ts.s 			page 33


 1256 0042 00000000 		.4byte	0x0
 1257 0046 00000000 		.4byte	0x0
 1258              	.LLST2:
 1259 004a 00000000 		.4byte	.LVL0-.Ltext0
 1260 004e 1C000000 		.4byte	.LVL2-.Ltext0
 1261 0052 0100     		.2byte	0x1
 1262 0054 51       		.byte	0x51
 1263 0055 1C000000 		.4byte	.LVL2-.Ltext0
 1264 0059 5C000000 		.4byte	.LVL5-.Ltext0
 1265 005d 0100     		.2byte	0x1
 1266 005f 54       		.byte	0x54
 1267 0060 00000000 		.4byte	0x0
 1268 0064 00000000 		.4byte	0x0
 1269              	.LLST3:
 1270 0068 00000000 		.4byte	.LVL0-.Ltext0
 1271 006c 20000000 		.4byte	.LVL3-.Ltext0
 1272 0070 0100     		.2byte	0x1
 1273 0072 52       		.byte	0x52
 1274 0073 20000000 		.4byte	.LVL3-.Ltext0
 1275 0077 84000000 		.4byte	.LFE2-.Ltext0
 1276 007b 0100     		.2byte	0x1
 1277 007d 56       		.byte	0x56
 1278 007e 00000000 		.4byte	0x0
 1279 0082 00000000 		.4byte	0x0
 1280              	.LLST7:
 1281 0086 38010000 		.4byte	.LFB7-.Ltext0
 1282 008a 3C010000 		.4byte	.LCFI2-.Ltext0
 1283 008e 0100     		.2byte	0x1
 1284 0090 5D       		.byte	0x5d
 1285 0091 3C010000 		.4byte	.LCFI2-.Ltext0
 1286 0095 64010000 		.4byte	.LFE7-.Ltext0
 1287 0099 0200     		.2byte	0x2
 1288 009b 7D       		.byte	0x7d
 1289 009c 08       		.sleb128 8
 1290 009d 00000000 		.4byte	0x0
 1291 00a1 00000000 		.4byte	0x0
 1292              	.LLST8:
 1293 00a5 38010000 		.4byte	.LVL8-.Ltext0
 1294 00a9 44010000 		.4byte	.LVL9-.Ltext0
 1295 00ad 0100     		.2byte	0x1
 1296 00af 50       		.byte	0x50
 1297 00b0 44010000 		.4byte	.LVL9-.Ltext0
 1298 00b4 64010000 		.4byte	.LFE7-.Ltext0
 1299 00b8 0100     		.2byte	0x1
 1300 00ba 54       		.byte	0x54
 1301 00bb 00000000 		.4byte	0x0
 1302 00bf 00000000 		.4byte	0x0
 1303              	.LLST9:
 1304 00c3 64010000 		.4byte	.LFB8-.Ltext0
 1305 00c7 68010000 		.4byte	.LCFI3-.Ltext0
 1306 00cb 0100     		.2byte	0x1
 1307 00cd 5D       		.byte	0x5d
 1308 00ce 68010000 		.4byte	.LCFI3-.Ltext0
 1309 00d2 6C010000 		.4byte	.LCFI4-.Ltext0
 1310 00d6 0200     		.2byte	0x2
 1311 00d8 7D       		.byte	0x7d
 1312 00d9 24       		.sleb128 36
ARM GAS  /cygdrive/c/Users/embedded/AppData/Local/Temp/ccelz1ts.s 			page 34


 1313 00da 6C010000 		.4byte	.LCFI4-.Ltext0
 1314 00de 7C020000 		.4byte	.LFE8-.Ltext0
 1315 00e2 0300     		.2byte	0x3
 1316 00e4 7D       		.byte	0x7d
 1317 00e5 C400     		.sleb128 68
 1318 00e7 00000000 		.4byte	0x0
 1319 00eb 00000000 		.4byte	0x0
 1320              	.LLST10:
 1321 00ef 64010000 		.4byte	.LVL11-.Ltext0
 1322 00f3 A4010000 		.4byte	.LVL14-.Ltext0
 1323 00f7 0100     		.2byte	0x1
 1324 00f9 50       		.byte	0x50
 1325 00fa A4010000 		.4byte	.LVL14-.Ltext0
 1326 00fe 7C020000 		.4byte	.LFE8-.Ltext0
 1327 0102 0100     		.2byte	0x1
 1328 0104 57       		.byte	0x57
 1329 0105 00000000 		.4byte	0x0
 1330 0109 00000000 		.4byte	0x0
 1331              	.LLST11:
 1332 010d 64010000 		.4byte	.LVL11-.Ltext0
 1333 0111 A8010000 		.4byte	.LVL15-.Ltext0
 1334 0115 0100     		.2byte	0x1
 1335 0117 51       		.byte	0x51
 1336 0118 00000000 		.4byte	0x0
 1337 011c 00000000 		.4byte	0x0
 1338              	.LLST12:
 1339 0120 64010000 		.4byte	.LVL11-.Ltext0
 1340 0124 A0010000 		.4byte	.LVL13-.Ltext0
 1341 0128 0100     		.2byte	0x1
 1342 012a 52       		.byte	0x52
 1343 012b 00000000 		.4byte	0x0
 1344 012f 00000000 		.4byte	0x0
 1345              	.LLST13:
 1346 0133 64010000 		.4byte	.LVL11-.Ltext0
 1347 0137 B0010000 		.4byte	.LVL16-.Ltext0
 1348 013b 0100     		.2byte	0x1
 1349 013d 53       		.byte	0x53
 1350 013e B0010000 		.4byte	.LVL16-.Ltext0
 1351 0142 7C020000 		.4byte	.LFE8-.Ltext0
 1352 0146 0100     		.2byte	0x1
 1353 0148 5B       		.byte	0x5b
 1354 0149 00000000 		.4byte	0x0
 1355 014d 00000000 		.4byte	0x0
 1356              	.LLST14:
 1357 0151 64010000 		.4byte	.LVL11-.Ltext0
 1358 0155 E0010000 		.4byte	.LVL19-.Ltext0
 1359 0159 0200     		.2byte	0x2
 1360 015b 91       		.byte	0x91
 1361 015c 00       		.sleb128 0
 1362 015d E0010000 		.4byte	.LVL19-.Ltext0
 1363 0161 7C020000 		.4byte	.LFE8-.Ltext0
 1364 0165 0100     		.2byte	0x1
 1365 0167 58       		.byte	0x58
 1366 0168 00000000 		.4byte	0x0
 1367 016c 00000000 		.4byte	0x0
 1368              	.LLST15:
 1369 0170 88010000 		.4byte	.LVL12-.Ltext0
ARM GAS  /cygdrive/c/Users/embedded/AppData/Local/Temp/ccelz1ts.s 			page 35


 1370 0174 D8010000 		.4byte	.LVL17-.Ltext0
 1371 0178 0100     		.2byte	0x1
 1372 017a 54       		.byte	0x54
 1373 017b DC010000 		.4byte	.LVL18-.Ltext0
 1374 017f E0010000 		.4byte	.LVL19-.Ltext0
 1375 0183 0100     		.2byte	0x1
 1376 0185 55       		.byte	0x55
 1377 0186 E0010000 		.4byte	.LVL19-.Ltext0
 1378 018a F8010000 		.4byte	.LVL20-.Ltext0
 1379 018e 0100     		.2byte	0x1
 1380 0190 50       		.byte	0x50
 1381 0191 F8010000 		.4byte	.LVL20-.Ltext0
 1382 0195 30020000 		.4byte	.LVL22-.Ltext0
 1383 0199 0100     		.2byte	0x1
 1384 019b 55       		.byte	0x55
 1385 019c 30020000 		.4byte	.LVL22-.Ltext0
 1386 01a0 68020000 		.4byte	.LVL23-.Ltext0
 1387 01a4 0100     		.2byte	0x1
 1388 01a6 50       		.byte	0x50
 1389 01a7 68020000 		.4byte	.LVL23-.Ltext0
 1390 01ab 7C020000 		.4byte	.LFE8-.Ltext0
 1391 01af 0100     		.2byte	0x1
 1392 01b1 55       		.byte	0x55
 1393 01b2 00000000 		.4byte	0x0
 1394 01b6 00000000 		.4byte	0x0
 1395              	.LLST18:
 1396 01ba 9C020000 		.4byte	.LVL24-.Ltext0
 1397 01be B8020000 		.4byte	.LVL25-.Ltext0
 1398 01c2 0100     		.2byte	0x1
 1399 01c4 50       		.byte	0x50
 1400 01c5 00000000 		.4byte	0x0
 1401 01c9 00000000 		.4byte	0x0
 1402              	.LLST19:
 1403 01cd C0020000 		.4byte	.LFB12-.Ltext0
 1404 01d1 C4020000 		.4byte	.LCFI5-.Ltext0
 1405 01d5 0100     		.2byte	0x1
 1406 01d7 5D       		.byte	0x5d
 1407 01d8 C4020000 		.4byte	.LCFI5-.Ltext0
 1408 01dc 38030000 		.4byte	.LFE12-.Ltext0
 1409 01e0 0200     		.2byte	0x2
 1410 01e2 7D       		.byte	0x7d
 1411 01e3 0C       		.sleb128 12
 1412 01e4 00000000 		.4byte	0x0
 1413 01e8 00000000 		.4byte	0x0
 1414              	.LLST20:
 1415 01ec C0020000 		.4byte	.LVL26-.Ltext0
 1416 01f0 C8020000 		.4byte	.LVL27-.Ltext0
 1417 01f4 0100     		.2byte	0x1
 1418 01f6 50       		.byte	0x50
 1419 01f7 C8020000 		.4byte	.LVL27-.Ltext0
 1420 01fb C8020000 		.4byte	.LVL27-.Ltext0
 1421 01ff 0100     		.2byte	0x1
 1422 0201 54       		.byte	0x54
 1423 0202 CC020000 		.4byte	.LVL28-.Ltext0
 1424 0206 D0020000 		.4byte	.LVL29-.Ltext0
 1425 020a 0100     		.2byte	0x1
 1426 020c 55       		.byte	0x55
ARM GAS  /cygdrive/c/Users/embedded/AppData/Local/Temp/ccelz1ts.s 			page 36


 1427 020d D0020000 		.4byte	.LVL29-.Ltext0
 1428 0211 08030000 		.4byte	.LVL35-.Ltext0
 1429 0215 0100     		.2byte	0x1
 1430 0217 54       		.byte	0x54
 1431 0218 08030000 		.4byte	.LVL35-.Ltext0
 1432 021c 18030000 		.4byte	.LVL37-.Ltext0
 1433 0220 0100     		.2byte	0x1
 1434 0222 50       		.byte	0x50
 1435 0223 18030000 		.4byte	.LVL37-.Ltext0
 1436 0227 38030000 		.4byte	.LFE12-.Ltext0
 1437 022b 0100     		.2byte	0x1
 1438 022d 54       		.byte	0x54
 1439 022e 00000000 		.4byte	0x0
 1440 0232 00000000 		.4byte	0x0
 1441              	.LLST21:
 1442 0236 D0020000 		.4byte	.LVL29-.Ltext0
 1443 023a D8020000 		.4byte	.LVL30-.Ltext0
 1444 023e 0100     		.2byte	0x1
 1445 0240 50       		.byte	0x50
 1446 0241 D8020000 		.4byte	.LVL30-.Ltext0
 1447 0245 E8020000 		.4byte	.LVL31-.Ltext0
 1448 0249 0100     		.2byte	0x1
 1449 024b 53       		.byte	0x53
 1450 024c F0020000 		.4byte	.LVL32-.Ltext0
 1451 0250 F8020000 		.4byte	.LVL33-.Ltext0
 1452 0254 0100     		.2byte	0x1
 1453 0256 53       		.byte	0x53
 1454 0257 F8020000 		.4byte	.LVL33-.Ltext0
 1455 025b 00030000 		.4byte	.LVL34-.Ltext0
 1456 025f 0100     		.2byte	0x1
 1457 0261 53       		.byte	0x53
 1458 0262 10030000 		.4byte	.LVL36-.Ltext0
 1459 0266 1C030000 		.4byte	.LVL38-.Ltext0
 1460 026a 0100     		.2byte	0x1
 1461 026c 53       		.byte	0x53
 1462 026d 1C030000 		.4byte	.LVL38-.Ltext0
 1463 0271 24030000 		.4byte	.LVL39-.Ltext0
 1464 0275 0100     		.2byte	0x1
 1465 0277 50       		.byte	0x50
 1466 0278 00000000 		.4byte	0x0
 1467 027c 00000000 		.4byte	0x0
 1468              	.LLST22:
 1469 0280 38030000 		.4byte	.LFB9-.Ltext0
 1470 0284 3C030000 		.4byte	.LCFI6-.Ltext0
 1471 0288 0100     		.2byte	0x1
 1472 028a 5D       		.byte	0x5d
 1473 028b 3C030000 		.4byte	.LCFI6-.Ltext0
 1474 028f 40030000 		.4byte	.LCFI7-.Ltext0
 1475 0293 0200     		.2byte	0x2
 1476 0295 7D       		.byte	0x7d
 1477 0296 10       		.sleb128 16
 1478 0297 40030000 		.4byte	.LCFI7-.Ltext0
 1479 029b 44030000 		.4byte	.LCFI8-.Ltext0
 1480 029f 0200     		.2byte	0x2
 1481 02a1 7D       		.byte	0x7d
 1482 02a2 20       		.sleb128 32
 1483 02a3 44030000 		.4byte	.LCFI8-.Ltext0
ARM GAS  /cygdrive/c/Users/embedded/AppData/Local/Temp/ccelz1ts.s 			page 37


 1484 02a7 B8040000 		.4byte	.LFE9-.Ltext0
 1485 02ab 0200     		.2byte	0x2
 1486 02ad 7D       		.byte	0x7d
 1487 02ae 24       		.sleb128 36
 1488 02af 00000000 		.4byte	0x0
 1489 02b3 00000000 		.4byte	0x0
 1490              	.LLST23:
 1491 02b7 38030000 		.4byte	.LVL40-.Ltext0
 1492 02bb 58030000 		.4byte	.LVL43-.Ltext0
 1493 02bf 0200     		.2byte	0x2
 1494 02c1 91       		.byte	0x91
 1495 02c2 00       		.sleb128 0
 1496 02c3 58030000 		.4byte	.LVL43-.Ltext0
 1497 02c7 B8040000 		.4byte	.LFE9-.Ltext0
 1498 02cb 0100     		.2byte	0x1
 1499 02cd 56       		.byte	0x56
 1500 02ce 00000000 		.4byte	0x0
 1501 02d2 00000000 		.4byte	0x0
 1502              	.LLST24:
 1503 02d6 50030000 		.4byte	.LVL41-.Ltext0
 1504 02da 58030000 		.4byte	.LVL43-.Ltext0
 1505 02de 0100     		.2byte	0x1
 1506 02e0 55       		.byte	0x55
 1507 02e1 58030000 		.4byte	.LVL43-.Ltext0
 1508 02e5 64030000 		.4byte	.LVL45-.Ltext0
 1509 02e9 0100     		.2byte	0x1
 1510 02eb 53       		.byte	0x53
 1511 02ec 64030000 		.4byte	.LVL45-.Ltext0
 1512 02f0 74030000 		.4byte	.LVL47-.Ltext0
 1513 02f4 0100     		.2byte	0x1
 1514 02f6 53       		.byte	0x53
 1515 02f7 44040000 		.4byte	.LVL66-.Ltext0
 1516 02fb 58040000 		.4byte	.LVL69-.Ltext0
 1517 02ff 0100     		.2byte	0x1
 1518 0301 55       		.byte	0x55
 1519 0302 58040000 		.4byte	.LVL69-.Ltext0
 1520 0306 60040000 		.4byte	.LVL70-.Ltext0
 1521 030a 0100     		.2byte	0x1
 1522 030c 53       		.byte	0x53
 1523 030d A4040000 		.4byte	.LVL81-.Ltext0
 1524 0311 B8040000 		.4byte	.LFE9-.Ltext0
 1525 0315 0100     		.2byte	0x1
 1526 0317 53       		.byte	0x53
 1527 0318 00000000 		.4byte	0x0
 1528 031c 00000000 		.4byte	0x0
 1529              	.LLST25:
 1530 0320 58030000 		.4byte	.LVL43-.Ltext0
 1531 0324 78030000 		.4byte	.LVL48-.Ltext0
 1532 0328 0100     		.2byte	0x1
 1533 032a 54       		.byte	0x54
 1534 032b F8030000 		.4byte	.LVL52-.Ltext0
 1535 032f 14040000 		.4byte	.LVL58-.Ltext0
 1536 0333 0100     		.2byte	0x1
 1537 0335 54       		.byte	0x54
 1538 0336 A4040000 		.4byte	.LVL81-.Ltext0
 1539 033a B8040000 		.4byte	.LFE9-.Ltext0
 1540 033e 0100     		.2byte	0x1
ARM GAS  /cygdrive/c/Users/embedded/AppData/Local/Temp/ccelz1ts.s 			page 38


 1541 0340 54       		.byte	0x54
 1542 0341 00000000 		.4byte	0x0
 1543 0345 00000000 		.4byte	0x0
 1544              	.LLST26:
 1545 0349 58030000 		.4byte	.LVL43-.Ltext0
 1546 034d 58030000 		.4byte	.LVL43-.Ltext0
 1547 0351 0100     		.2byte	0x1
 1548 0353 53       		.byte	0x53
 1549 0354 58030000 		.4byte	.LVL43-.Ltext0
 1550 0358 64030000 		.4byte	.LVL45-.Ltext0
 1551 035c 0100     		.2byte	0x1
 1552 035e 50       		.byte	0x50
 1553 035f 64030000 		.4byte	.LVL45-.Ltext0
 1554 0363 68030000 		.4byte	.LVL46-.Ltext0
 1555 0367 0100     		.2byte	0x1
 1556 0369 50       		.byte	0x50
 1557 036a 68030000 		.4byte	.LVL46-.Ltext0
 1558 036e 74030000 		.4byte	.LVL47-.Ltext0
 1559 0372 0100     		.2byte	0x1
 1560 0374 53       		.byte	0x53
 1561 0375 F4030000 		.4byte	.LVL51-.Ltext0
 1562 0379 FC030000 		.4byte	.LVL53-.Ltext0
 1563 037d 0100     		.2byte	0x1
 1564 037f 50       		.byte	0x50
 1565 0380 00040000 		.4byte	.LVL54-.Ltext0
 1566 0384 04040000 		.4byte	.LVL55-.Ltext0
 1567 0388 0100     		.2byte	0x1
 1568 038a 50       		.byte	0x50
 1569 038b 04040000 		.4byte	.LVL55-.Ltext0
 1570 038f 08040000 		.4byte	.LVL56-.Ltext0
 1571 0393 0100     		.2byte	0x1
 1572 0395 53       		.byte	0x53
 1573 0396 0C040000 		.4byte	.LVL57-.Ltext0
 1574 039a 14040000 		.4byte	.LVL58-.Ltext0
 1575 039e 0100     		.2byte	0x1
 1576 03a0 50       		.byte	0x50
 1577 03a1 14040000 		.4byte	.LVL58-.Ltext0
 1578 03a5 28040000 		.4byte	.LVL61-.Ltext0
 1579 03a9 0100     		.2byte	0x1
 1580 03ab 50       		.byte	0x50
 1581 03ac 30040000 		.4byte	.LVL63-.Ltext0
 1582 03b0 38040000 		.4byte	.LVL64-.Ltext0
 1583 03b4 0100     		.2byte	0x1
 1584 03b6 50       		.byte	0x50
 1585 03b7 44040000 		.4byte	.LVL66-.Ltext0
 1586 03bb 4C040000 		.4byte	.LVL67-.Ltext0
 1587 03bf 0100     		.2byte	0x1
 1588 03c1 50       		.byte	0x50
 1589 03c2 60040000 		.4byte	.LVL70-.Ltext0
 1590 03c6 68040000 		.4byte	.LVL71-.Ltext0
 1591 03ca 0100     		.2byte	0x1
 1592 03cc 50       		.byte	0x50
 1593 03cd 70040000 		.4byte	.LVL72-.Ltext0
 1594 03d1 74040000 		.4byte	.LVL73-.Ltext0
 1595 03d5 0100     		.2byte	0x1
 1596 03d7 50       		.byte	0x50
 1597 03d8 80040000 		.4byte	.LVL75-.Ltext0
ARM GAS  /cygdrive/c/Users/embedded/AppData/Local/Temp/ccelz1ts.s 			page 39


 1598 03dc 88040000 		.4byte	.LVL76-.Ltext0
 1599 03e0 0100     		.2byte	0x1
 1600 03e2 50       		.byte	0x50
 1601 03e3 90040000 		.4byte	.LVL77-.Ltext0
 1602 03e7 98040000 		.4byte	.LVL78-.Ltext0
 1603 03eb 0100     		.2byte	0x1
 1604 03ed 50       		.byte	0x50
 1605 03ee 9C040000 		.4byte	.LVL79-.Ltext0
 1606 03f2 A0040000 		.4byte	.LVL80-.Ltext0
 1607 03f6 0100     		.2byte	0x1
 1608 03f8 50       		.byte	0x50
 1609 03f9 A4040000 		.4byte	.LVL81-.Ltext0
 1610 03fd A4040000 		.4byte	.LVL81-.Ltext0
 1611 0401 0100     		.2byte	0x1
 1612 0403 53       		.byte	0x53
 1613 0404 A4040000 		.4byte	.LVL81-.Ltext0
 1614 0408 B8040000 		.4byte	.LFE9-.Ltext0
 1615 040c 0100     		.2byte	0x1
 1616 040e 50       		.byte	0x50
 1617 040f 00000000 		.4byte	0x0
 1618 0413 00000000 		.4byte	0x0
 1619              	.LLST27:
 1620 0417 58030000 		.4byte	.LVL43-.Ltext0
 1621 041b 78030000 		.4byte	.LVL48-.Ltext0
 1622 041f 0100     		.2byte	0x1
 1623 0421 54       		.byte	0x54
 1624 0422 18040000 		.4byte	.LVL59-.Ltext0
 1625 0426 44040000 		.4byte	.LVL66-.Ltext0
 1626 042a 0100     		.2byte	0x1
 1627 042c 54       		.byte	0x54
 1628 042d A4040000 		.4byte	.LVL81-.Ltext0
 1629 0431 B8040000 		.4byte	.LFE9-.Ltext0
 1630 0435 0100     		.2byte	0x1
 1631 0437 54       		.byte	0x54
 1632 0438 00000000 		.4byte	0x0
 1633 043c 00000000 		.4byte	0x0
 1634              	.LLST28:
 1635 0440 60030000 		.4byte	.LVL44-.Ltext0
 1636 0444 64030000 		.4byte	.LVL45-.Ltext0
 1637 0448 0100     		.2byte	0x1
 1638 044a 53       		.byte	0x53
 1639 044b 74030000 		.4byte	.LVL47-.Ltext0
 1640 044f F0030000 		.4byte	.LVL50-.Ltext0
 1641 0453 0100     		.2byte	0x1
 1642 0455 53       		.byte	0x53
 1643 0456 F4030000 		.4byte	.LVL51-.Ltext0
 1644 045a FC030000 		.4byte	.LVL53-.Ltext0
 1645 045e 0100     		.2byte	0x1
 1646 0460 53       		.byte	0x53
 1647 0461 00040000 		.4byte	.LVL54-.Ltext0
 1648 0465 04040000 		.4byte	.LVL55-.Ltext0
 1649 0469 0100     		.2byte	0x1
 1650 046b 53       		.byte	0x53
 1651 046c 14040000 		.4byte	.LVL58-.Ltext0
 1652 0470 2C040000 		.4byte	.LVL62-.Ltext0
 1653 0474 0100     		.2byte	0x1
 1654 0476 53       		.byte	0x53
ARM GAS  /cygdrive/c/Users/embedded/AppData/Local/Temp/ccelz1ts.s 			page 40


 1655 0477 30040000 		.4byte	.LVL63-.Ltext0
 1656 047b 40040000 		.4byte	.LVL65-.Ltext0
 1657 047f 0100     		.2byte	0x1
 1658 0481 53       		.byte	0x53
 1659 0482 44040000 		.4byte	.LVL66-.Ltext0
 1660 0486 54040000 		.4byte	.LVL68-.Ltext0
 1661 048a 0100     		.2byte	0x1
 1662 048c 53       		.byte	0x53
 1663 048d 60040000 		.4byte	.LVL70-.Ltext0
 1664 0491 78040000 		.4byte	.LVL74-.Ltext0
 1665 0495 0100     		.2byte	0x1
 1666 0497 53       		.byte	0x53
 1667 0498 80040000 		.4byte	.LVL75-.Ltext0
 1668 049c 9C040000 		.4byte	.LVL79-.Ltext0
 1669 04a0 0100     		.2byte	0x1
 1670 04a2 53       		.byte	0x53
 1671 04a3 9C040000 		.4byte	.LVL79-.Ltext0
 1672 04a7 B8040000 		.4byte	.LFE9-.Ltext0
 1673 04ab 0100     		.2byte	0x1
 1674 04ad 53       		.byte	0x53
 1675 04ae 00000000 		.4byte	0x0
 1676 04b2 00000000 		.4byte	0x0
 1677              	.LLST29:
 1678 04b6 B8040000 		.4byte	.LFB13-.Ltext0
 1679 04ba BC040000 		.4byte	.LCFI9-.Ltext0
 1680 04be 0100     		.2byte	0x1
 1681 04c0 5D       		.byte	0x5d
 1682 04c1 BC040000 		.4byte	.LCFI9-.Ltext0
 1683 04c5 C0040000 		.4byte	.LCFI10-.Ltext0
 1684 04c9 0200     		.2byte	0x2
 1685 04cb 7D       		.byte	0x7d
 1686 04cc 10       		.sleb128 16
 1687 04cd C0040000 		.4byte	.LCFI10-.Ltext0
 1688 04d1 98050000 		.4byte	.LFE13-.Ltext0
 1689 04d5 0200     		.2byte	0x2
 1690 04d7 7D       		.byte	0x7d
 1691 04d8 30       		.sleb128 48
 1692 04d9 00000000 		.4byte	0x0
 1693 04dd 00000000 		.4byte	0x0
 1694              	.LLST30:
 1695 04e1 14050000 		.4byte	.LVL85-.Ltext0
 1696 04e5 4C050000 		.4byte	.LVL89-.Ltext0
 1697 04e9 0100     		.2byte	0x1
 1698 04eb 5C       		.byte	0x5c
 1699 04ec 50050000 		.4byte	.LVL90-.Ltext0
 1700 04f0 98050000 		.4byte	.LFE13-.Ltext0
 1701 04f4 0100     		.2byte	0x1
 1702 04f6 5C       		.byte	0x5c
 1703 04f7 00000000 		.4byte	0x0
 1704 04fb 00000000 		.4byte	0x0
 1705              	.LLST31:
 1706 04ff 34050000 		.4byte	.LVL86-.Ltext0
 1707 0503 3C050000 		.4byte	.LVL88-.Ltext0
 1708 0507 0100     		.2byte	0x1
 1709 0509 50       		.byte	0x50
 1710 050a 50050000 		.4byte	.LVL90-.Ltext0
 1711 050e 60050000 		.4byte	.LVL91-.Ltext0
ARM GAS  /cygdrive/c/Users/embedded/AppData/Local/Temp/ccelz1ts.s 			page 41


 1712 0512 0100     		.2byte	0x1
 1713 0514 50       		.byte	0x50
 1714 0515 64050000 		.4byte	.LVL92-.Ltext0
 1715 0519 8C050000 		.4byte	.LVL93-.Ltext0
 1716 051d 0100     		.2byte	0x1
 1717 051f 50       		.byte	0x50
 1718 0520 00000000 		.4byte	0x0
 1719 0524 00000000 		.4byte	0x0
 1720              	.LLST32:
 1721 0528 38050000 		.4byte	.LVL87-.Ltext0
 1722 052c 3C050000 		.4byte	.LVL88-.Ltext0
 1723 0530 0100     		.2byte	0x1
 1724 0532 5E       		.byte	0x5e
 1725 0533 50050000 		.4byte	.LVL90-.Ltext0
 1726 0537 98050000 		.4byte	.LFE13-.Ltext0
 1727 053b 0100     		.2byte	0x1
 1728 053d 5E       		.byte	0x5e
 1729 053e 00000000 		.4byte	0x0
 1730 0542 00000000 		.4byte	0x0
 1731              	.LLST33:
 1732 0546 98050000 		.4byte	.LFB14-.Ltext0
 1733 054a 9C050000 		.4byte	.LCFI11-.Ltext0
 1734 054e 0100     		.2byte	0x1
 1735 0550 5D       		.byte	0x5d
 1736 0551 9C050000 		.4byte	.LCFI11-.Ltext0
 1737 0555 A0050000 		.4byte	.LCFI12-.Ltext0
 1738 0559 0200     		.2byte	0x2
 1739 055b 7D       		.byte	0x7d
 1740 055c 10       		.sleb128 16
 1741 055d A0050000 		.4byte	.LCFI12-.Ltext0
 1742 0561 A4050000 		.4byte	.LCFI13-.Ltext0
 1743 0565 0200     		.2byte	0x2
 1744 0567 7D       		.byte	0x7d
 1745 0568 1C       		.sleb128 28
 1746 0569 A4050000 		.4byte	.LCFI13-.Ltext0
 1747 056d 7C060000 		.4byte	.LFE14-.Ltext0
 1748 0571 0200     		.2byte	0x2
 1749 0573 7D       		.byte	0x7d
 1750 0574 20       		.sleb128 32
 1751 0575 00000000 		.4byte	0x0
 1752 0579 00000000 		.4byte	0x0
 1753              	.LLST34:
 1754 057d 98050000 		.4byte	.LVL94-.Ltext0
 1755 0581 B4050000 		.4byte	.LVL96-.Ltext0
 1756 0585 0200     		.2byte	0x2
 1757 0587 91       		.byte	0x91
 1758 0588 00       		.sleb128 0
 1759 0589 B4050000 		.4byte	.LVL96-.Ltext0
 1760 058d 7C060000 		.4byte	.LFE14-.Ltext0
 1761 0591 0100     		.2byte	0x1
 1762 0593 55       		.byte	0x55
 1763 0594 00000000 		.4byte	0x0
 1764 0598 00000000 		.4byte	0x0
 1765              	.LLST35:
 1766 059c B4050000 		.4byte	.LVL96-.Ltext0
 1767 05a0 C4050000 		.4byte	.LVL97-.Ltext0
 1768 05a4 0100     		.2byte	0x1
ARM GAS  /cygdrive/c/Users/embedded/AppData/Local/Temp/ccelz1ts.s 			page 42


 1769 05a6 53       		.byte	0x53
 1770 05a7 5C060000 		.4byte	.LVL104-.Ltext0
 1771 05ab 7C060000 		.4byte	.LFE14-.Ltext0
 1772 05af 0100     		.2byte	0x1
 1773 05b1 53       		.byte	0x53
 1774 05b2 00000000 		.4byte	0x0
 1775 05b6 00000000 		.4byte	0x0
 1776              	.LLST36:
 1777 05ba B4050000 		.4byte	.LVL96-.Ltext0
 1778 05be 14060000 		.4byte	.LVL98-.Ltext0
 1779 05c2 0100     		.2byte	0x1
 1780 05c4 52       		.byte	0x52
 1781 05c5 18060000 		.4byte	.LVL99-.Ltext0
 1782 05c9 20060000 		.4byte	.LVL100-.Ltext0
 1783 05cd 0100     		.2byte	0x1
 1784 05cf 52       		.byte	0x52
 1785 05d0 34060000 		.4byte	.LVL101-.Ltext0
 1786 05d4 38060000 		.4byte	.LVL102-.Ltext0
 1787 05d8 0100     		.2byte	0x1
 1788 05da 52       		.byte	0x52
 1789 05db 44060000 		.4byte	.LVL103-.Ltext0
 1790 05df 7C060000 		.4byte	.LFE14-.Ltext0
 1791 05e3 0100     		.2byte	0x1
 1792 05e5 52       		.byte	0x52
 1793 05e6 00000000 		.4byte	0x0
 1794 05ea 00000000 		.4byte	0x0
 1795              		.section	.debug_info
 1796 0000 80050000 		.4byte	0x580
 1797 0004 0200     		.2byte	0x2
 1798 0006 00000000 		.4byte	.Ldebug_abbrev0
 1799 000a 04       		.byte	0x4
 1800 000b 01       		.uleb128 0x1
 1801 000c 00000000 		.4byte	.Ldebug_line0
 1802 0010 7C060000 		.4byte	.Letext0
 1803 0014 00000000 		.4byte	.Ltext0
 1804 0018 8F000000 		.4byte	.LASF48
 1805 001c 01       		.byte	0x1
 1806 001d DC010000 		.4byte	.LASF49
 1807 0021 0D010000 		.4byte	.LASF50
 1808 0025 02       		.uleb128 0x2
 1809 0026 696E7400 		.ascii	"int\000"
 1810 002a 04       		.byte	0x4
 1811 002b 05       		.byte	0x5
 1812 002c 03       		.uleb128 0x3
 1813 002d D9000000 		.4byte	.LASF0
 1814 0031 04       		.byte	0x4
 1815 0032 05       		.byte	0x5
 1816 0033 03       		.uleb128 0x3
 1817 0034 CB000000 		.4byte	.LASF1
 1818 0038 08       		.byte	0x8
 1819 0039 05       		.byte	0x5
 1820 003a 03       		.uleb128 0x3
 1821 003b 96010000 		.4byte	.LASF2
 1822 003f 04       		.byte	0x4
 1823 0040 07       		.byte	0x7
 1824 0041 03       		.uleb128 0x3
 1825 0042 EF010000 		.4byte	.LASF3
ARM GAS  /cygdrive/c/Users/embedded/AppData/Local/Temp/ccelz1ts.s 			page 43


 1826 0046 04       		.byte	0x4
 1827 0047 07       		.byte	0x7
 1828 0048 03       		.uleb128 0x3
 1829 0049 47010000 		.4byte	.LASF4
 1830 004d 01       		.byte	0x1
 1831 004e 08       		.byte	0x8
 1832 004f 03       		.uleb128 0x3
 1833 0050 EF010000 		.4byte	.LASF3
 1834 0054 04       		.byte	0x4
 1835 0055 07       		.byte	0x7
 1836 0056 03       		.uleb128 0x3
 1837 0057 64000000 		.4byte	.LASF5
 1838 005b 02       		.byte	0x2
 1839 005c 05       		.byte	0x5
 1840 005d 04       		.uleb128 0x4
 1841 005e 04       		.byte	0x4
 1842 005f 63000000 		.4byte	0x63
 1843 0063 03       		.uleb128 0x3
 1844 0064 D1010000 		.4byte	.LASF6
 1845 0068 01       		.byte	0x1
 1846 0069 08       		.byte	0x8
 1847 006a 04       		.uleb128 0x4
 1848 006b 04       		.byte	0x4
 1849 006c 70000000 		.4byte	0x70
 1850 0070 05       		.uleb128 0x5
 1851 0071 63000000 		.4byte	0x63
 1852 0075 03       		.uleb128 0x3
 1853 0076 BE010000 		.4byte	.LASF7
 1854 007a 02       		.byte	0x2
 1855 007b 07       		.byte	0x7
 1856 007c 03       		.uleb128 0x3
 1857 007d 6E010000 		.4byte	.LASF8
 1858 0081 08       		.byte	0x8
 1859 0082 07       		.byte	0x7
 1860 0083 06       		.uleb128 0x6
 1861 0084 73000000 		.4byte	.LASF9
 1862 0088 02       		.byte	0x2
 1863 0089 2B       		.byte	0x2b
 1864 008a 8E000000 		.4byte	0x8e
 1865 008e 07       		.uleb128 0x7
 1866 008f 04       		.byte	0x4
 1867 0090 06       		.uleb128 0x6
 1868 0091 C3000000 		.4byte	.LASF10
 1869 0095 02       		.byte	0x2
 1870 0096 69       		.byte	0x69
 1871 0097 83000000 		.4byte	0x83
 1872 009b 08       		.uleb128 0x8
 1873 009c B5000000 		.4byte	0xb5
 1874 00a0 01       		.byte	0x1
 1875 00a1 55000000 		.4byte	.LASF18
 1876 00a5 01       		.byte	0x1
 1877 00a6 E3       		.byte	0xe3
 1878 00a7 01       		.byte	0x1
 1879 00a8 01       		.byte	0x1
 1880 00a9 09       		.uleb128 0x9
 1881 00aa E7000000 		.4byte	.LASF11
 1882 00ae 01       		.byte	0x1
ARM GAS  /cygdrive/c/Users/embedded/AppData/Local/Temp/ccelz1ts.s 			page 44


 1883 00af E2       		.byte	0xe2
 1884 00b0 63000000 		.4byte	0x63
 1885 00b4 00       		.byte	0x0
 1886 00b5 0A       		.uleb128 0xa
 1887 00b6 01       		.byte	0x1
 1888 00b7 38000000 		.4byte	.LASF16
 1889 00bb 01       		.byte	0x1
 1890 00bc 7B01     		.2byte	0x17b
 1891 00be 01       		.byte	0x1
 1892 00bf 63000000 		.4byte	0x63
 1893 00c3 01       		.byte	0x1
 1894 00c4 0B       		.uleb128 0xb
 1895 00c5 32010000 		.4byte	0x132
 1896 00c9 F2000000 		.4byte	.LASF33
 1897 00cd 01       		.byte	0x1
 1898 00ce 3C       		.byte	0x3c
 1899 00cf 01       		.byte	0x1
 1900 00d0 00000000 		.4byte	.LFB2
 1901 00d4 84000000 		.4byte	.LFE2
 1902 00d8 00000000 		.4byte	.LLST0
 1903 00dc 0C       		.uleb128 0xc
 1904 00dd 01020000 		.4byte	.LASF12
 1905 00e1 01       		.byte	0x1
 1906 00e2 39       		.byte	0x39
 1907 00e3 3E010000 		.4byte	0x13e
 1908 00e7 2C000000 		.4byte	.LLST1
 1909 00eb 0C       		.uleb128 0xc
 1910 00ec 3B020000 		.4byte	.LASF13
 1911 00f0 01       		.byte	0x1
 1912 00f1 3A       		.byte	0x3a
 1913 00f2 3A000000 		.4byte	0x3a
 1914 00f6 4A000000 		.4byte	.LLST2
 1915 00fa 0C       		.uleb128 0xc
 1916 00fb E2000000 		.4byte	.LASF14
 1917 00ff 01       		.byte	0x1
 1918 0100 3B       		.byte	0x3b
 1919 0101 3A000000 		.4byte	0x3a
 1920 0105 68000000 		.4byte	.LLST3
 1921 0109 0D       		.uleb128 0xd
 1922 010a 7000     		.ascii	"p\000"
 1923 010c 01       		.byte	0x1
 1924 010d 3D       		.byte	0x3d
 1925 010e 5D000000 		.4byte	0x5d
 1926 0112 01       		.byte	0x1
 1927 0113 55       		.byte	0x55
 1928 0114 0D       		.uleb128 0xd
 1929 0115 62756600 		.ascii	"buf\000"
 1930 0119 01       		.byte	0x1
 1931 011a 3E       		.byte	0x3e
 1932 011b 44010000 		.4byte	0x144
 1933 011f 03       		.byte	0x3
 1934 0120 91       		.byte	0x91
 1935 0121 BA7F     		.sleb128 -70
 1936 0123 0E       		.uleb128 0xe
 1937 0124 5C010000 		.4byte	.LASF15
 1938 0128 01       		.byte	0x1
 1939 0129 3F       		.byte	0x3f
ARM GAS  /cygdrive/c/Users/embedded/AppData/Local/Temp/ccelz1ts.s 			page 45


 1940 012a 54010000 		.4byte	0x154
 1941 012e 02       		.byte	0x2
 1942 012f 91       		.byte	0x91
 1943 0130 5B       		.sleb128 -37
 1944 0131 00       		.byte	0x0
 1945 0132 0F       		.uleb128 0xf
 1946 0133 3E010000 		.4byte	0x13e
 1947 0137 01       		.byte	0x1
 1948 0138 10       		.uleb128 0x10
 1949 0139 63000000 		.4byte	0x63
 1950 013d 00       		.byte	0x0
 1951 013e 04       		.uleb128 0x4
 1952 013f 04       		.byte	0x4
 1953 0140 32010000 		.4byte	0x132
 1954 0144 11       		.uleb128 0x11
 1955 0145 54010000 		.4byte	0x154
 1956 0149 63000000 		.4byte	0x63
 1957 014d 12       		.uleb128 0x12
 1958 014e 41000000 		.4byte	0x41
 1959 0152 20       		.byte	0x20
 1960 0153 00       		.byte	0x0
 1961 0154 11       		.uleb128 0x11
 1962 0155 64010000 		.4byte	0x164
 1963 0159 63000000 		.4byte	0x63
 1964 015d 12       		.uleb128 0x12
 1965 015e 41000000 		.4byte	0x41
 1966 0162 10       		.byte	0x10
 1967 0163 00       		.byte	0x0
 1968 0164 13       		.uleb128 0x13
 1969 0165 01       		.byte	0x1
 1970 0166 3C010000 		.4byte	.LASF17
 1971 016a 01       		.byte	0x1
 1972 016b BE       		.byte	0xbe
 1973 016c 01       		.byte	0x1
 1974 016d 84000000 		.4byte	.LFB4
 1975 0171 D4000000 		.4byte	.LFE4
 1976 0175 01       		.byte	0x1
 1977 0176 5D       		.byte	0x5d
 1978 0177 14       		.uleb128 0x14
 1979 0178 92010000 		.4byte	0x192
 1980 017c 9B000000 		.4byte	0x9b
 1981 0180 D4000000 		.4byte	.LFB5
 1982 0184 F4000000 		.4byte	.LFE5
 1983 0188 01       		.byte	0x1
 1984 0189 5D       		.byte	0x5d
 1985 018a 15       		.uleb128 0x15
 1986 018b A9000000 		.4byte	0xa9
 1987 018f 01       		.byte	0x1
 1988 0190 50       		.byte	0x50
 1989 0191 00       		.byte	0x0
 1990 0192 16       		.uleb128 0x16
 1991 0193 E5010000 		.4byte	0x1e5
 1992 0197 01       		.byte	0x1
 1993 0198 AC010000 		.4byte	.LASF19
 1994 019c 01       		.byte	0x1
 1995 019d F5       		.byte	0xf5
 1996 019e 01       		.byte	0x1
ARM GAS  /cygdrive/c/Users/embedded/AppData/Local/Temp/ccelz1ts.s 			page 46


 1997 019f F4000000 		.4byte	.LFB6
 1998 01a3 38010000 		.4byte	.LFE6
 1999 01a7 01       		.byte	0x1
 2000 01a8 5D       		.byte	0x5d
 2001 01a9 17       		.uleb128 0x17
 2002 01aa E7000000 		.4byte	.LASF11
 2003 01ae 01       		.byte	0x1
 2004 01af F4       		.byte	0xf4
 2005 01b0 63000000 		.4byte	0x63
 2006 01b4 01       		.byte	0x1
 2007 01b5 50       		.byte	0x50
 2008 01b6 18       		.uleb128 0x18
 2009 01b7 CF010000 		.4byte	0x1cf
 2010 01bb 9B000000 		.4byte	0x9b
 2011 01bf 00010000 		.4byte	.LBB8
 2012 01c3 18010000 		.4byte	.LBE8
 2013 01c7 01       		.byte	0x1
 2014 01c8 F7       		.byte	0xf7
 2015 01c9 19       		.uleb128 0x19
 2016 01ca 8A010000 		.4byte	0x18a
 2017 01ce 00       		.byte	0x0
 2018 01cf 1A       		.uleb128 0x1a
 2019 01d0 9B000000 		.4byte	0x9b
 2020 01d4 18010000 		.4byte	.LBB10
 2021 01d8 30010000 		.4byte	.LBE10
 2022 01dc 01       		.byte	0x1
 2023 01dd F9       		.byte	0xf9
 2024 01de 19       		.uleb128 0x19
 2025 01df 8A010000 		.4byte	0x18a
 2026 01e3 00       		.byte	0x0
 2027 01e4 00       		.byte	0x0
 2028 01e5 1B       		.uleb128 0x1b
 2029 01e6 10020000 		.4byte	0x210
 2030 01ea 01       		.byte	0x1
 2031 01eb 85010000 		.4byte	.LASF20
 2032 01ef 01       		.byte	0x1
 2033 01f0 0701     		.2byte	0x107
 2034 01f2 01       		.byte	0x1
 2035 01f3 38010000 		.4byte	.LFB7
 2036 01f7 64010000 		.4byte	.LFE7
 2037 01fb 86000000 		.4byte	.LLST7
 2038 01ff 1C       		.uleb128 0x1c
 2039 0200 9B000000 		.4byte	.LASF21
 2040 0204 01       		.byte	0x1
 2041 0205 0601     		.2byte	0x106
 2042 0207 5D000000 		.4byte	0x5d
 2043 020b A5000000 		.4byte	.LLST8
 2044 020f 00       		.byte	0x0
 2045 0210 1B       		.uleb128 0x1b
 2046 0211 C7020000 		.4byte	0x2c7
 2047 0215 01       		.byte	0x1
 2048 0216 44000000 		.4byte	.LASF22
 2049 021a 01       		.byte	0x1
 2050 021b 2201     		.2byte	0x122
 2051 021d 01       		.byte	0x1
 2052 021e 64010000 		.4byte	.LFB8
 2053 0222 7C020000 		.4byte	.LFE8
ARM GAS  /cygdrive/c/Users/embedded/AppData/Local/Temp/ccelz1ts.s 			page 47


 2054 0226 C3000000 		.4byte	.LLST9
 2055 022a 1C       		.uleb128 0x1c
 2056 022b E2000000 		.4byte	.LASF14
 2057 022f 01       		.byte	0x1
 2058 0230 1D01     		.2byte	0x11d
 2059 0232 48000000 		.4byte	0x48
 2060 0236 EF000000 		.4byte	.LLST10
 2061 023a 1C       		.uleb128 0x1c
 2062 023b 65010000 		.4byte	.LASF23
 2063 023f 01       		.byte	0x1
 2064 0240 1E01     		.2byte	0x11e
 2065 0242 48000000 		.4byte	0x48
 2066 0246 0D010000 		.4byte	.LLST11
 2067 024a 1C       		.uleb128 0x1c
 2068 024b B9010000 		.4byte	.LASF24
 2069 024f 01       		.byte	0x1
 2070 0250 1F01     		.2byte	0x11f
 2071 0252 48000000 		.4byte	0x48
 2072 0256 20010000 		.4byte	.LLST12
 2073 025a 1D       		.uleb128 0x1d
 2074 025b 70616400 		.ascii	"pad\000"
 2075 025f 01       		.byte	0x1
 2076 0260 2001     		.2byte	0x120
 2077 0262 63000000 		.4byte	0x63
 2078 0266 33010000 		.4byte	.LLST13
 2079 026a 1C       		.uleb128 0x1c
 2080 026b 3B020000 		.4byte	.LASF13
 2081 026f 01       		.byte	0x1
 2082 0270 2101     		.2byte	0x121
 2083 0272 25000000 		.4byte	0x25
 2084 0276 51010000 		.4byte	.LLST14
 2085 027a 1E       		.uleb128 0x1e
 2086 027b E5010000 		.4byte	.LASF25
 2087 027f 01       		.byte	0x1
 2088 0280 2401     		.2byte	0x124
 2089 0282 5D000000 		.4byte	0x5d
 2090 0286 01       		.byte	0x1
 2091 0287 54       		.byte	0x54
 2092 0288 1F       		.uleb128 0x1f
 2093 0289 62756600 		.ascii	"buf\000"
 2094 028d 01       		.byte	0x1
 2095 028e 2501     		.2byte	0x125
 2096 0290 C7020000 		.4byte	0x2c7
 2097 0294 03       		.byte	0x3
 2098 0295 91       		.byte	0x91
 2099 0296 BC7F     		.sleb128 -68
 2100 0298 20       		.uleb128 0x20
 2101 0299 2E000000 		.4byte	.LASF26
 2102 029d 01       		.byte	0x1
 2103 029e 2601     		.2byte	0x126
 2104 02a0 3A000000 		.4byte	0x3a
 2105 02a4 70010000 		.4byte	.LLST15
 2106 02a8 21       		.uleb128 0x21
 2107 02a9 89000000 		.4byte	.LASF27
 2108 02ad 01       		.byte	0x1
 2109 02ae 2701     		.2byte	0x127
 2110 02b0 48000000 		.4byte	0x48
ARM GAS  /cygdrive/c/Users/embedded/AppData/Local/Temp/ccelz1ts.s 			page 48


 2111 02b4 1E       		.uleb128 0x1e
 2112 02b5 5C010000 		.4byte	.LASF15
 2113 02b9 01       		.byte	0x1
 2114 02ba 2301     		.2byte	0x123
 2115 02bc 7E050000 		.4byte	0x57e
 2116 02c0 05       		.byte	0x5
 2117 02c1 03       		.byte	0x3
 2118 02c2 00000000 		.4byte	hexChars.2029
 2119 02c6 00       		.byte	0x0
 2120 02c7 11       		.uleb128 0x11
 2121 02c8 D7020000 		.4byte	0x2d7
 2122 02cc 63000000 		.4byte	0x63
 2123 02d0 12       		.uleb128 0x12
 2124 02d1 41000000 		.4byte	0x41
 2125 02d5 1F       		.byte	0x1f
 2126 02d6 00       		.byte	0x0
 2127 02d7 22       		.uleb128 0x22
 2128 02d8 B5000000 		.4byte	0xb5
 2129 02dc 7C020000 		.4byte	.LFB10
 2130 02e0 9C020000 		.4byte	.LFE10
 2131 02e4 01       		.byte	0x1
 2132 02e5 5D       		.byte	0x5d
 2133 02e6 23       		.uleb128 0x23
 2134 02e7 13030000 		.4byte	0x313
 2135 02eb 01       		.byte	0x1
 2136 02ec 25020000 		.4byte	.LASF28
 2137 02f0 01       		.byte	0x1
 2138 02f1 9001     		.2byte	0x190
 2139 02f3 01       		.byte	0x1
 2140 02f4 63000000 		.4byte	0x63
 2141 02f8 9C020000 		.4byte	.LFB11
 2142 02fc C0020000 		.4byte	.LFE11
 2143 0300 01       		.byte	0x1
 2144 0301 5D       		.byte	0x5d
 2145 0302 1C       		.uleb128 0x1c
 2146 0303 00000000 		.4byte	.LASF29
 2147 0307 01       		.byte	0x1
 2148 0308 8F01     		.2byte	0x18f
 2149 030a 5D000000 		.4byte	0x5d
 2150 030e BA010000 		.4byte	.LLST18
 2151 0312 00       		.byte	0x0
 2152 0313 1B       		.uleb128 0x1b
 2153 0314 6A030000 		.4byte	0x36a
 2154 0318 01       		.byte	0x1
 2155 0319 0B020000 		.4byte	.LASF30
 2156 031d 01       		.byte	0x1
 2157 031e A401     		.2byte	0x1a4
 2158 0320 01       		.byte	0x1
 2159 0321 C0020000 		.4byte	.LFB12
 2160 0325 38030000 		.4byte	.LFE12
 2161 0329 CD010000 		.4byte	.LLST19
 2162 032d 1C       		.uleb128 0x1c
 2163 032e 9B000000 		.4byte	.LASF21
 2164 0332 01       		.byte	0x1
 2165 0333 A301     		.2byte	0x1a3
 2166 0335 5D000000 		.4byte	0x5d
 2167 0339 EC010000 		.4byte	.LLST20
ARM GAS  /cygdrive/c/Users/embedded/AppData/Local/Temp/ccelz1ts.s 			page 49


 2168 033d 21       		.uleb128 0x21
 2169 033e A3010000 		.4byte	.LASF31
 2170 0342 01       		.byte	0x1
 2171 0343 A501     		.2byte	0x1a5
 2172 0345 5D000000 		.4byte	0x5d
 2173 0349 20       		.uleb128 0x20
 2174 034a 82000000 		.4byte	.LASF32
 2175 034e 01       		.byte	0x1
 2176 034f A601     		.2byte	0x1a6
 2177 0351 63000000 		.4byte	0x63
 2178 0355 36020000 		.4byte	.LLST21
 2179 0359 24       		.uleb128 0x24
 2180 035a B5000000 		.4byte	0xb5
 2181 035e F8020000 		.4byte	.LBB12
 2182 0362 0C030000 		.4byte	.LBE12
 2183 0366 01       		.byte	0x1
 2184 0367 A901     		.2byte	0x1a9
 2185 0369 00       		.byte	0x0
 2186 036a 25       		.uleb128 0x25
 2187 036b C7030000 		.4byte	0x3c7
 2188 036f AE000000 		.4byte	.LASF34
 2189 0373 01       		.byte	0x1
 2190 0374 60       		.byte	0x60
 2191 0375 01       		.byte	0x1
 2192 0376 01       		.byte	0x1
 2193 0377 09       		.uleb128 0x9
 2194 0378 01020000 		.4byte	.LASF12
 2195 037c 01       		.byte	0x1
 2196 037d 5D       		.byte	0x5d
 2197 037e 3E010000 		.4byte	0x13e
 2198 0382 26       		.uleb128 0x26
 2199 0383 666D7400 		.ascii	"fmt\000"
 2200 0387 01       		.byte	0x1
 2201 0388 5E       		.byte	0x5e
 2202 0389 6A000000 		.4byte	0x6a
 2203 038d 26       		.uleb128 0x26
 2204 038e 617000   		.ascii	"ap\000"
 2205 0391 01       		.byte	0x1
 2206 0392 5F       		.byte	0x5f
 2207 0393 90000000 		.4byte	0x90
 2208 0397 27       		.uleb128 0x27
 2209 0398 7000     		.ascii	"p\000"
 2210 039a 01       		.byte	0x1
 2211 039b 61       		.byte	0x61
 2212 039c 5D000000 		.4byte	0x5d
 2213 03a0 27       		.uleb128 0x27
 2214 03a1 636800   		.ascii	"ch\000"
 2215 03a4 01       		.byte	0x1
 2216 03a5 62       		.byte	0x62
 2217 03a6 63000000 		.4byte	0x63
 2218 03aa 27       		.uleb128 0x27
 2219 03ab 756C00   		.ascii	"ul\000"
 2220 03ae 01       		.byte	0x1
 2221 03af 63       		.byte	0x63
 2222 03b0 4F000000 		.4byte	0x4f
 2223 03b4 28       		.uleb128 0x28
 2224 03b5 FB000000 		.4byte	.LASF35
ARM GAS  /cygdrive/c/Users/embedded/AppData/Local/Temp/ccelz1ts.s 			page 50


 2225 03b9 01       		.byte	0x1
 2226 03ba 64       		.byte	0x64
 2227 03bb 48000000 		.4byte	0x48
 2228 03bf 29       		.uleb128 0x29
 2229 03c0 BA000000 		.4byte	.LASF51
 2230 03c4 01       		.byte	0x1
 2231 03c5 79       		.byte	0x79
 2232 03c6 00       		.byte	0x0
 2233 03c7 1B       		.uleb128 0x1b
 2234 03c8 58040000 		.4byte	0x458
 2235 03cc 01       		.byte	0x1
 2236 03cd 11000000 		.4byte	.LASF36
 2237 03d1 01       		.byte	0x1
 2238 03d2 6401     		.2byte	0x164
 2239 03d4 01       		.byte	0x1
 2240 03d5 38030000 		.4byte	.LFB9
 2241 03d9 B8040000 		.4byte	.LFE9
 2242 03dd 80020000 		.4byte	.LLST22
 2243 03e1 1D       		.uleb128 0x1d
 2244 03e2 666D7400 		.ascii	"fmt\000"
 2245 03e6 01       		.byte	0x1
 2246 03e7 6201     		.2byte	0x162
 2247 03e9 6A000000 		.4byte	0x6a
 2248 03ed B7020000 		.4byte	.LLST23
 2249 03f1 2A       		.uleb128 0x2a
 2250 03f2 1F       		.uleb128 0x1f
 2251 03f3 617000   		.ascii	"ap\000"
 2252 03f6 01       		.byte	0x1
 2253 03f7 6501     		.2byte	0x165
 2254 03f9 90000000 		.4byte	0x90
 2255 03fd 02       		.byte	0x2
 2256 03fe 91       		.byte	0x91
 2257 03ff 74       		.sleb128 -12
 2258 0400 2B       		.uleb128 0x2b
 2259 0401 6A030000 		.4byte	0x36a
 2260 0405 58030000 		.4byte	.LBB16
 2261 0409 A4040000 		.4byte	.LBE16
 2262 040d 01       		.byte	0x1
 2263 040e 6801     		.2byte	0x168
 2264 0410 2C       		.uleb128 0x2c
 2265 0411 8D030000 		.4byte	0x38d
 2266 0415 D6020000 		.4byte	.LLST24
 2267 0419 19       		.uleb128 0x19
 2268 041a 82030000 		.4byte	0x382
 2269 041e 19       		.uleb128 0x19
 2270 041f 77030000 		.4byte	0x377
 2271 0423 2D       		.uleb128 0x2d
 2272 0424 58030000 		.4byte	.LBB17
 2273 0428 A4040000 		.4byte	.LBE17
 2274 042c 2E       		.uleb128 0x2e
 2275 042d 97030000 		.4byte	0x397
 2276 0431 20030000 		.4byte	.LLST25
 2277 0435 2E       		.uleb128 0x2e
 2278 0436 A0030000 		.4byte	0x3a0
 2279 043a 49030000 		.4byte	.LLST26
 2280 043e 2E       		.uleb128 0x2e
 2281 043f AA030000 		.4byte	0x3aa
ARM GAS  /cygdrive/c/Users/embedded/AppData/Local/Temp/ccelz1ts.s 			page 51


 2282 0443 17040000 		.4byte	.LLST27
 2283 0447 2E       		.uleb128 0x2e
 2284 0448 B4030000 		.4byte	0x3b4
 2285 044c 40040000 		.4byte	.LLST28
 2286 0450 2F       		.uleb128 0x2f
 2287 0451 BF030000 		.4byte	0x3bf
 2288 0455 00       		.byte	0x0
 2289 0456 00       		.byte	0x0
 2290 0457 00       		.byte	0x0
 2291 0458 30       		.uleb128 0x30
 2292 0459 DF040000 		.4byte	0x4df
 2293 045d 01       		.byte	0x1
 2294 045e 1E000000 		.4byte	.LASF37
 2295 0462 01       		.byte	0x1
 2296 0463 C901     		.2byte	0x1c9
 2297 0465 01       		.byte	0x1
 2298 0466 25000000 		.4byte	0x25
 2299 046a B8040000 		.4byte	.LFB13
 2300 046e 98050000 		.4byte	.LFE13
 2301 0472 B6040000 		.4byte	.LLST29
 2302 0476 1E       		.uleb128 0x1e
 2303 0477 A3000000 		.4byte	.LASF38
 2304 047b 01       		.byte	0x1
 2305 047c CA01     		.2byte	0x1ca
 2306 047e DF040000 		.4byte	0x4df
 2307 0482 02       		.byte	0x2
 2308 0483 91       		.byte	0x91
 2309 0484 52       		.sleb128 -46
 2310 0485 1E       		.uleb128 0x1e
 2311 0486 9B000000 		.4byte	.LASF21
 2312 048a 01       		.byte	0x1
 2313 048b CB01     		.2byte	0x1cb
 2314 048d 5D000000 		.4byte	0x5d
 2315 0491 01       		.byte	0x1
 2316 0492 54       		.byte	0x54
 2317 0493 1E       		.uleb128 0x1e
 2318 0494 D6010000 		.4byte	.LASF39
 2319 0498 01       		.byte	0x1
 2320 0499 CC01     		.2byte	0x1cc
 2321 049b 25000000 		.4byte	0x25
 2322 049f 01       		.byte	0x1
 2323 04a0 55       		.byte	0x55
 2324 04a1 1E       		.uleb128 0x1e
 2325 04a2 55010000 		.4byte	.LASF40
 2326 04a6 01       		.byte	0x1
 2327 04a7 CD01     		.2byte	0x1cd
 2328 04a9 25000000 		.4byte	0x25
 2329 04ad 01       		.byte	0x1
 2330 04ae 56       		.byte	0x56
 2331 04af 20       		.uleb128 0x20
 2332 04b0 06000000 		.4byte	.LASF41
 2333 04b4 01       		.byte	0x1
 2334 04b5 CE01     		.2byte	0x1ce
 2335 04b7 25000000 		.4byte	0x25
 2336 04bb E1040000 		.4byte	.LLST30
 2337 04bf 20       		.uleb128 0x20
 2338 04c0 33020000 		.4byte	.LASF42
ARM GAS  /cygdrive/c/Users/embedded/AppData/Local/Temp/ccelz1ts.s 			page 52


 2339 04c4 01       		.byte	0x1
 2340 04c5 CF01     		.2byte	0x1cf
 2341 04c7 25000000 		.4byte	0x25
 2342 04cb FF040000 		.4byte	.LLST31
 2343 04cf 31       		.uleb128 0x31
 2344 04d0 774900   		.ascii	"wI\000"
 2345 04d3 01       		.byte	0x1
 2346 04d4 D001     		.2byte	0x1d0
 2347 04d6 25000000 		.4byte	0x25
 2348 04da 28050000 		.4byte	.LLST32
 2349 04de 00       		.byte	0x0
 2350 04df 11       		.uleb128 0x11
 2351 04e0 EF040000 		.4byte	0x4ef
 2352 04e4 63000000 		.4byte	0x63
 2353 04e8 12       		.uleb128 0x12
 2354 04e9 41000000 		.4byte	0x41
 2355 04ed 1D       		.byte	0x1d
 2356 04ee 00       		.byte	0x0
 2357 04ef 1B       		.uleb128 0x1b
 2358 04f0 68050000 		.4byte	0x568
 2359 04f4 01       		.byte	0x1
 2360 04f5 01010000 		.4byte	.LASF43
 2361 04f9 01       		.byte	0x1
 2362 04fa 1002     		.2byte	0x210
 2363 04fc 01       		.byte	0x1
 2364 04fd 98050000 		.4byte	.LFB14
 2365 0501 7C060000 		.4byte	.LFE14
 2366 0505 46050000 		.4byte	.LLST33
 2367 0509 1C       		.uleb128 0x1c
 2368 050a 6E000000 		.4byte	.LASF44
 2369 050e 01       		.byte	0x1
 2370 050f 0F02     		.2byte	0x20f
 2371 0511 5D000000 		.4byte	0x5d
 2372 0515 7D050000 		.4byte	.LLST34
 2373 0519 2A       		.uleb128 0x2a
 2374 051a 1E       		.uleb128 0x1e
 2375 051b A9000000 		.4byte	.LASF45
 2376 051f 01       		.byte	0x1
 2377 0520 1102     		.2byte	0x211
 2378 0522 90000000 		.4byte	0x90
 2379 0526 02       		.byte	0x2
 2380 0527 91       		.byte	0x91
 2381 0528 74       		.sleb128 -12
 2382 0529 20       		.uleb128 0x20
 2383 052a 1B020000 		.4byte	.LASF46
 2384 052e 01       		.byte	0x1
 2385 052f 1202     		.2byte	0x212
 2386 0531 63000000 		.4byte	0x63
 2387 0535 9C050000 		.4byte	.LLST35
 2388 0539 1E       		.uleb128 0x1e
 2389 053a EA010000 		.4byte	.LASF47
 2390 053e 01       		.byte	0x1
 2391 053f 1302     		.2byte	0x213
 2392 0541 68050000 		.4byte	0x568
 2393 0545 01       		.byte	0x1
 2394 0546 54       		.byte	0x54
 2395 0547 20       		.uleb128 0x20
ARM GAS  /cygdrive/c/Users/embedded/AppData/Local/Temp/ccelz1ts.s 			page 53


 2396 0548 00000000 		.4byte	.LASF29
 2397 054c 01       		.byte	0x1
 2398 054d 1402     		.2byte	0x214
 2399 054f 5D000000 		.4byte	0x5d
 2400 0553 BA050000 		.4byte	.LLST36
 2401 0557 24       		.uleb128 0x24
 2402 0558 B5000000 		.4byte	0xb5
 2403 055c 44060000 		.4byte	.LBB20
 2404 0560 58060000 		.4byte	.LBE20
 2405 0564 01       		.byte	0x1
 2406 0565 2902     		.2byte	0x229
 2407 0567 00       		.byte	0x0
 2408 0568 04       		.uleb128 0x4
 2409 0569 04       		.byte	0x4
 2410 056a 25000000 		.4byte	0x25
 2411 056e 11       		.uleb128 0x11
 2412 056f 7E050000 		.4byte	0x57e
 2413 0573 63000000 		.4byte	0x63
 2414 0577 12       		.uleb128 0x12
 2415 0578 41000000 		.4byte	0x41
 2416 057c 0F       		.byte	0xf
 2417 057d 00       		.byte	0x0
 2418 057e 05       		.uleb128 0x5
 2419 057f 6E050000 		.4byte	0x56e
 2420 0583 00       		.byte	0x0
 2421              		.section	.debug_abbrev
 2422 0000 01       		.uleb128 0x1
 2423 0001 11       		.uleb128 0x11
 2424 0002 01       		.byte	0x1
 2425 0003 10       		.uleb128 0x10
 2426 0004 06       		.uleb128 0x6
 2427 0005 12       		.uleb128 0x12
 2428 0006 01       		.uleb128 0x1
 2429 0007 11       		.uleb128 0x11
 2430 0008 01       		.uleb128 0x1
 2431 0009 25       		.uleb128 0x25
 2432 000a 0E       		.uleb128 0xe
 2433 000b 13       		.uleb128 0x13
 2434 000c 0B       		.uleb128 0xb
 2435 000d 03       		.uleb128 0x3
 2436 000e 0E       		.uleb128 0xe
 2437 000f 1B       		.uleb128 0x1b
 2438 0010 0E       		.uleb128 0xe
 2439 0011 00       		.byte	0x0
 2440 0012 00       		.byte	0x0
 2441 0013 02       		.uleb128 0x2
 2442 0014 24       		.uleb128 0x24
 2443 0015 00       		.byte	0x0
 2444 0016 03       		.uleb128 0x3
 2445 0017 08       		.uleb128 0x8
 2446 0018 0B       		.uleb128 0xb
 2447 0019 0B       		.uleb128 0xb
 2448 001a 3E       		.uleb128 0x3e
 2449 001b 0B       		.uleb128 0xb
 2450 001c 00       		.byte	0x0
 2451 001d 00       		.byte	0x0
 2452 001e 03       		.uleb128 0x3
ARM GAS  /cygdrive/c/Users/embedded/AppData/Local/Temp/ccelz1ts.s 			page 54


 2453 001f 24       		.uleb128 0x24
 2454 0020 00       		.byte	0x0
 2455 0021 03       		.uleb128 0x3
 2456 0022 0E       		.uleb128 0xe
 2457 0023 0B       		.uleb128 0xb
 2458 0024 0B       		.uleb128 0xb
 2459 0025 3E       		.uleb128 0x3e
 2460 0026 0B       		.uleb128 0xb
 2461 0027 00       		.byte	0x0
 2462 0028 00       		.byte	0x0
 2463 0029 04       		.uleb128 0x4
 2464 002a 0F       		.uleb128 0xf
 2465 002b 00       		.byte	0x0
 2466 002c 0B       		.uleb128 0xb
 2467 002d 0B       		.uleb128 0xb
 2468 002e 49       		.uleb128 0x49
 2469 002f 13       		.uleb128 0x13
 2470 0030 00       		.byte	0x0
 2471 0031 00       		.byte	0x0
 2472 0032 05       		.uleb128 0x5
 2473 0033 26       		.uleb128 0x26
 2474 0034 00       		.byte	0x0
 2475 0035 49       		.uleb128 0x49
 2476 0036 13       		.uleb128 0x13
 2477 0037 00       		.byte	0x0
 2478 0038 00       		.byte	0x0
 2479 0039 06       		.uleb128 0x6
 2480 003a 16       		.uleb128 0x16
 2481 003b 00       		.byte	0x0
 2482 003c 03       		.uleb128 0x3
 2483 003d 0E       		.uleb128 0xe
 2484 003e 3A       		.uleb128 0x3a
 2485 003f 0B       		.uleb128 0xb
 2486 0040 3B       		.uleb128 0x3b
 2487 0041 0B       		.uleb128 0xb
 2488 0042 49       		.uleb128 0x49
 2489 0043 13       		.uleb128 0x13
 2490 0044 00       		.byte	0x0
 2491 0045 00       		.byte	0x0
 2492 0046 07       		.uleb128 0x7
 2493 0047 0F       		.uleb128 0xf
 2494 0048 00       		.byte	0x0
 2495 0049 0B       		.uleb128 0xb
 2496 004a 0B       		.uleb128 0xb
 2497 004b 00       		.byte	0x0
 2498 004c 00       		.byte	0x0
 2499 004d 08       		.uleb128 0x8
 2500 004e 2E       		.uleb128 0x2e
 2501 004f 01       		.byte	0x1
 2502 0050 01       		.uleb128 0x1
 2503 0051 13       		.uleb128 0x13
 2504 0052 3F       		.uleb128 0x3f
 2505 0053 0C       		.uleb128 0xc
 2506 0054 03       		.uleb128 0x3
 2507 0055 0E       		.uleb128 0xe
 2508 0056 3A       		.uleb128 0x3a
 2509 0057 0B       		.uleb128 0xb
ARM GAS  /cygdrive/c/Users/embedded/AppData/Local/Temp/ccelz1ts.s 			page 55


 2510 0058 3B       		.uleb128 0x3b
 2511 0059 0B       		.uleb128 0xb
 2512 005a 27       		.uleb128 0x27
 2513 005b 0C       		.uleb128 0xc
 2514 005c 20       		.uleb128 0x20
 2515 005d 0B       		.uleb128 0xb
 2516 005e 00       		.byte	0x0
 2517 005f 00       		.byte	0x0
 2518 0060 09       		.uleb128 0x9
 2519 0061 05       		.uleb128 0x5
 2520 0062 00       		.byte	0x0
 2521 0063 03       		.uleb128 0x3
 2522 0064 0E       		.uleb128 0xe
 2523 0065 3A       		.uleb128 0x3a
 2524 0066 0B       		.uleb128 0xb
 2525 0067 3B       		.uleb128 0x3b
 2526 0068 0B       		.uleb128 0xb
 2527 0069 49       		.uleb128 0x49
 2528 006a 13       		.uleb128 0x13
 2529 006b 00       		.byte	0x0
 2530 006c 00       		.byte	0x0
 2531 006d 0A       		.uleb128 0xa
 2532 006e 2E       		.uleb128 0x2e
 2533 006f 00       		.byte	0x0
 2534 0070 3F       		.uleb128 0x3f
 2535 0071 0C       		.uleb128 0xc
 2536 0072 03       		.uleb128 0x3
 2537 0073 0E       		.uleb128 0xe
 2538 0074 3A       		.uleb128 0x3a
 2539 0075 0B       		.uleb128 0xb
 2540 0076 3B       		.uleb128 0x3b
 2541 0077 05       		.uleb128 0x5
 2542 0078 27       		.uleb128 0x27
 2543 0079 0C       		.uleb128 0xc
 2544 007a 49       		.uleb128 0x49
 2545 007b 13       		.uleb128 0x13
 2546 007c 20       		.uleb128 0x20
 2547 007d 0B       		.uleb128 0xb
 2548 007e 00       		.byte	0x0
 2549 007f 00       		.byte	0x0
 2550 0080 0B       		.uleb128 0xb
 2551 0081 2E       		.uleb128 0x2e
 2552 0082 01       		.byte	0x1
 2553 0083 01       		.uleb128 0x1
 2554 0084 13       		.uleb128 0x13
 2555 0085 03       		.uleb128 0x3
 2556 0086 0E       		.uleb128 0xe
 2557 0087 3A       		.uleb128 0x3a
 2558 0088 0B       		.uleb128 0xb
 2559 0089 3B       		.uleb128 0x3b
 2560 008a 0B       		.uleb128 0xb
 2561 008b 27       		.uleb128 0x27
 2562 008c 0C       		.uleb128 0xc
 2563 008d 11       		.uleb128 0x11
 2564 008e 01       		.uleb128 0x1
 2565 008f 12       		.uleb128 0x12
 2566 0090 01       		.uleb128 0x1
ARM GAS  /cygdrive/c/Users/embedded/AppData/Local/Temp/ccelz1ts.s 			page 56


 2567 0091 40       		.uleb128 0x40
 2568 0092 06       		.uleb128 0x6
 2569 0093 00       		.byte	0x0
 2570 0094 00       		.byte	0x0
 2571 0095 0C       		.uleb128 0xc
 2572 0096 05       		.uleb128 0x5
 2573 0097 00       		.byte	0x0
 2574 0098 03       		.uleb128 0x3
 2575 0099 0E       		.uleb128 0xe
 2576 009a 3A       		.uleb128 0x3a
 2577 009b 0B       		.uleb128 0xb
 2578 009c 3B       		.uleb128 0x3b
 2579 009d 0B       		.uleb128 0xb
 2580 009e 49       		.uleb128 0x49
 2581 009f 13       		.uleb128 0x13
 2582 00a0 02       		.uleb128 0x2
 2583 00a1 06       		.uleb128 0x6
 2584 00a2 00       		.byte	0x0
 2585 00a3 00       		.byte	0x0
 2586 00a4 0D       		.uleb128 0xd
 2587 00a5 34       		.uleb128 0x34
 2588 00a6 00       		.byte	0x0
 2589 00a7 03       		.uleb128 0x3
 2590 00a8 08       		.uleb128 0x8
 2591 00a9 3A       		.uleb128 0x3a
 2592 00aa 0B       		.uleb128 0xb
 2593 00ab 3B       		.uleb128 0x3b
 2594 00ac 0B       		.uleb128 0xb
 2595 00ad 49       		.uleb128 0x49
 2596 00ae 13       		.uleb128 0x13
 2597 00af 02       		.uleb128 0x2
 2598 00b0 0A       		.uleb128 0xa
 2599 00b1 00       		.byte	0x0
 2600 00b2 00       		.byte	0x0
 2601 00b3 0E       		.uleb128 0xe
 2602 00b4 34       		.uleb128 0x34
 2603 00b5 00       		.byte	0x0
 2604 00b6 03       		.uleb128 0x3
 2605 00b7 0E       		.uleb128 0xe
 2606 00b8 3A       		.uleb128 0x3a
 2607 00b9 0B       		.uleb128 0xb
 2608 00ba 3B       		.uleb128 0x3b
 2609 00bb 0B       		.uleb128 0xb
 2610 00bc 49       		.uleb128 0x49
 2611 00bd 13       		.uleb128 0x13
 2612 00be 02       		.uleb128 0x2
 2613 00bf 0A       		.uleb128 0xa
 2614 00c0 00       		.byte	0x0
 2615 00c1 00       		.byte	0x0
 2616 00c2 0F       		.uleb128 0xf
 2617 00c3 15       		.uleb128 0x15
 2618 00c4 01       		.byte	0x1
 2619 00c5 01       		.uleb128 0x1
 2620 00c6 13       		.uleb128 0x13
 2621 00c7 27       		.uleb128 0x27
 2622 00c8 0C       		.uleb128 0xc
 2623 00c9 00       		.byte	0x0
ARM GAS  /cygdrive/c/Users/embedded/AppData/Local/Temp/ccelz1ts.s 			page 57


 2624 00ca 00       		.byte	0x0
 2625 00cb 10       		.uleb128 0x10
 2626 00cc 05       		.uleb128 0x5
 2627 00cd 00       		.byte	0x0
 2628 00ce 49       		.uleb128 0x49
 2629 00cf 13       		.uleb128 0x13
 2630 00d0 00       		.byte	0x0
 2631 00d1 00       		.byte	0x0
 2632 00d2 11       		.uleb128 0x11
 2633 00d3 01       		.uleb128 0x1
 2634 00d4 01       		.byte	0x1
 2635 00d5 01       		.uleb128 0x1
 2636 00d6 13       		.uleb128 0x13
 2637 00d7 49       		.uleb128 0x49
 2638 00d8 13       		.uleb128 0x13
 2639 00d9 00       		.byte	0x0
 2640 00da 00       		.byte	0x0
 2641 00db 12       		.uleb128 0x12
 2642 00dc 21       		.uleb128 0x21
 2643 00dd 00       		.byte	0x0
 2644 00de 49       		.uleb128 0x49
 2645 00df 13       		.uleb128 0x13
 2646 00e0 2F       		.uleb128 0x2f
 2647 00e1 0B       		.uleb128 0xb
 2648 00e2 00       		.byte	0x0
 2649 00e3 00       		.byte	0x0
 2650 00e4 13       		.uleb128 0x13
 2651 00e5 2E       		.uleb128 0x2e
 2652 00e6 00       		.byte	0x0
 2653 00e7 3F       		.uleb128 0x3f
 2654 00e8 0C       		.uleb128 0xc
 2655 00e9 03       		.uleb128 0x3
 2656 00ea 0E       		.uleb128 0xe
 2657 00eb 3A       		.uleb128 0x3a
 2658 00ec 0B       		.uleb128 0xb
 2659 00ed 3B       		.uleb128 0x3b
 2660 00ee 0B       		.uleb128 0xb
 2661 00ef 27       		.uleb128 0x27
 2662 00f0 0C       		.uleb128 0xc
 2663 00f1 11       		.uleb128 0x11
 2664 00f2 01       		.uleb128 0x1
 2665 00f3 12       		.uleb128 0x12
 2666 00f4 01       		.uleb128 0x1
 2667 00f5 40       		.uleb128 0x40
 2668 00f6 0A       		.uleb128 0xa
 2669 00f7 00       		.byte	0x0
 2670 00f8 00       		.byte	0x0
 2671 00f9 14       		.uleb128 0x14
 2672 00fa 2E       		.uleb128 0x2e
 2673 00fb 01       		.byte	0x1
 2674 00fc 01       		.uleb128 0x1
 2675 00fd 13       		.uleb128 0x13
 2676 00fe 31       		.uleb128 0x31
 2677 00ff 13       		.uleb128 0x13
 2678 0100 11       		.uleb128 0x11
 2679 0101 01       		.uleb128 0x1
 2680 0102 12       		.uleb128 0x12
ARM GAS  /cygdrive/c/Users/embedded/AppData/Local/Temp/ccelz1ts.s 			page 58


 2681 0103 01       		.uleb128 0x1
 2682 0104 40       		.uleb128 0x40
 2683 0105 0A       		.uleb128 0xa
 2684 0106 00       		.byte	0x0
 2685 0107 00       		.byte	0x0
 2686 0108 15       		.uleb128 0x15
 2687 0109 05       		.uleb128 0x5
 2688 010a 00       		.byte	0x0
 2689 010b 31       		.uleb128 0x31
 2690 010c 13       		.uleb128 0x13
 2691 010d 02       		.uleb128 0x2
 2692 010e 0A       		.uleb128 0xa
 2693 010f 00       		.byte	0x0
 2694 0110 00       		.byte	0x0
 2695 0111 16       		.uleb128 0x16
 2696 0112 2E       		.uleb128 0x2e
 2697 0113 01       		.byte	0x1
 2698 0114 01       		.uleb128 0x1
 2699 0115 13       		.uleb128 0x13
 2700 0116 3F       		.uleb128 0x3f
 2701 0117 0C       		.uleb128 0xc
 2702 0118 03       		.uleb128 0x3
 2703 0119 0E       		.uleb128 0xe
 2704 011a 3A       		.uleb128 0x3a
 2705 011b 0B       		.uleb128 0xb
 2706 011c 3B       		.uleb128 0x3b
 2707 011d 0B       		.uleb128 0xb
 2708 011e 27       		.uleb128 0x27
 2709 011f 0C       		.uleb128 0xc
 2710 0120 11       		.uleb128 0x11
 2711 0121 01       		.uleb128 0x1
 2712 0122 12       		.uleb128 0x12
 2713 0123 01       		.uleb128 0x1
 2714 0124 40       		.uleb128 0x40
 2715 0125 0A       		.uleb128 0xa
 2716 0126 00       		.byte	0x0
 2717 0127 00       		.byte	0x0
 2718 0128 17       		.uleb128 0x17
 2719 0129 05       		.uleb128 0x5
 2720 012a 00       		.byte	0x0
 2721 012b 03       		.uleb128 0x3
 2722 012c 0E       		.uleb128 0xe
 2723 012d 3A       		.uleb128 0x3a
 2724 012e 0B       		.uleb128 0xb
 2725 012f 3B       		.uleb128 0x3b
 2726 0130 0B       		.uleb128 0xb
 2727 0131 49       		.uleb128 0x49
 2728 0132 13       		.uleb128 0x13
 2729 0133 02       		.uleb128 0x2
 2730 0134 0A       		.uleb128 0xa
 2731 0135 00       		.byte	0x0
 2732 0136 00       		.byte	0x0
 2733 0137 18       		.uleb128 0x18
 2734 0138 1D       		.uleb128 0x1d
 2735 0139 01       		.byte	0x1
 2736 013a 01       		.uleb128 0x1
 2737 013b 13       		.uleb128 0x13
ARM GAS  /cygdrive/c/Users/embedded/AppData/Local/Temp/ccelz1ts.s 			page 59


 2738 013c 31       		.uleb128 0x31
 2739 013d 13       		.uleb128 0x13
 2740 013e 11       		.uleb128 0x11
 2741 013f 01       		.uleb128 0x1
 2742 0140 12       		.uleb128 0x12
 2743 0141 01       		.uleb128 0x1
 2744 0142 58       		.uleb128 0x58
 2745 0143 0B       		.uleb128 0xb
 2746 0144 59       		.uleb128 0x59
 2747 0145 0B       		.uleb128 0xb
 2748 0146 00       		.byte	0x0
 2749 0147 00       		.byte	0x0
 2750 0148 19       		.uleb128 0x19
 2751 0149 05       		.uleb128 0x5
 2752 014a 00       		.byte	0x0
 2753 014b 31       		.uleb128 0x31
 2754 014c 13       		.uleb128 0x13
 2755 014d 00       		.byte	0x0
 2756 014e 00       		.byte	0x0
 2757 014f 1A       		.uleb128 0x1a
 2758 0150 1D       		.uleb128 0x1d
 2759 0151 01       		.byte	0x1
 2760 0152 31       		.uleb128 0x31
 2761 0153 13       		.uleb128 0x13
 2762 0154 11       		.uleb128 0x11
 2763 0155 01       		.uleb128 0x1
 2764 0156 12       		.uleb128 0x12
 2765 0157 01       		.uleb128 0x1
 2766 0158 58       		.uleb128 0x58
 2767 0159 0B       		.uleb128 0xb
 2768 015a 59       		.uleb128 0x59
 2769 015b 0B       		.uleb128 0xb
 2770 015c 00       		.byte	0x0
 2771 015d 00       		.byte	0x0
 2772 015e 1B       		.uleb128 0x1b
 2773 015f 2E       		.uleb128 0x2e
 2774 0160 01       		.byte	0x1
 2775 0161 01       		.uleb128 0x1
 2776 0162 13       		.uleb128 0x13
 2777 0163 3F       		.uleb128 0x3f
 2778 0164 0C       		.uleb128 0xc
 2779 0165 03       		.uleb128 0x3
 2780 0166 0E       		.uleb128 0xe
 2781 0167 3A       		.uleb128 0x3a
 2782 0168 0B       		.uleb128 0xb
 2783 0169 3B       		.uleb128 0x3b
 2784 016a 05       		.uleb128 0x5
 2785 016b 27       		.uleb128 0x27
 2786 016c 0C       		.uleb128 0xc
 2787 016d 11       		.uleb128 0x11
 2788 016e 01       		.uleb128 0x1
 2789 016f 12       		.uleb128 0x12
 2790 0170 01       		.uleb128 0x1
 2791 0171 40       		.uleb128 0x40
 2792 0172 06       		.uleb128 0x6
 2793 0173 00       		.byte	0x0
 2794 0174 00       		.byte	0x0
ARM GAS  /cygdrive/c/Users/embedded/AppData/Local/Temp/ccelz1ts.s 			page 60


 2795 0175 1C       		.uleb128 0x1c
 2796 0176 05       		.uleb128 0x5
 2797 0177 00       		.byte	0x0
 2798 0178 03       		.uleb128 0x3
 2799 0179 0E       		.uleb128 0xe
 2800 017a 3A       		.uleb128 0x3a
 2801 017b 0B       		.uleb128 0xb
 2802 017c 3B       		.uleb128 0x3b
 2803 017d 05       		.uleb128 0x5
 2804 017e 49       		.uleb128 0x49
 2805 017f 13       		.uleb128 0x13
 2806 0180 02       		.uleb128 0x2
 2807 0181 06       		.uleb128 0x6
 2808 0182 00       		.byte	0x0
 2809 0183 00       		.byte	0x0
 2810 0184 1D       		.uleb128 0x1d
 2811 0185 05       		.uleb128 0x5
 2812 0186 00       		.byte	0x0
 2813 0187 03       		.uleb128 0x3
 2814 0188 08       		.uleb128 0x8
 2815 0189 3A       		.uleb128 0x3a
 2816 018a 0B       		.uleb128 0xb
 2817 018b 3B       		.uleb128 0x3b
 2818 018c 05       		.uleb128 0x5
 2819 018d 49       		.uleb128 0x49
 2820 018e 13       		.uleb128 0x13
 2821 018f 02       		.uleb128 0x2
 2822 0190 06       		.uleb128 0x6
 2823 0191 00       		.byte	0x0
 2824 0192 00       		.byte	0x0
 2825 0193 1E       		.uleb128 0x1e
 2826 0194 34       		.uleb128 0x34
 2827 0195 00       		.byte	0x0
 2828 0196 03       		.uleb128 0x3
 2829 0197 0E       		.uleb128 0xe
 2830 0198 3A       		.uleb128 0x3a
 2831 0199 0B       		.uleb128 0xb
 2832 019a 3B       		.uleb128 0x3b
 2833 019b 05       		.uleb128 0x5
 2834 019c 49       		.uleb128 0x49
 2835 019d 13       		.uleb128 0x13
 2836 019e 02       		.uleb128 0x2
 2837 019f 0A       		.uleb128 0xa
 2838 01a0 00       		.byte	0x0
 2839 01a1 00       		.byte	0x0
 2840 01a2 1F       		.uleb128 0x1f
 2841 01a3 34       		.uleb128 0x34
 2842 01a4 00       		.byte	0x0
 2843 01a5 03       		.uleb128 0x3
 2844 01a6 08       		.uleb128 0x8
 2845 01a7 3A       		.uleb128 0x3a
 2846 01a8 0B       		.uleb128 0xb
 2847 01a9 3B       		.uleb128 0x3b
 2848 01aa 05       		.uleb128 0x5
 2849 01ab 49       		.uleb128 0x49
 2850 01ac 13       		.uleb128 0x13
 2851 01ad 02       		.uleb128 0x2
ARM GAS  /cygdrive/c/Users/embedded/AppData/Local/Temp/ccelz1ts.s 			page 61


 2852 01ae 0A       		.uleb128 0xa
 2853 01af 00       		.byte	0x0
 2854 01b0 00       		.byte	0x0
 2855 01b1 20       		.uleb128 0x20
 2856 01b2 34       		.uleb128 0x34
 2857 01b3 00       		.byte	0x0
 2858 01b4 03       		.uleb128 0x3
 2859 01b5 0E       		.uleb128 0xe
 2860 01b6 3A       		.uleb128 0x3a
 2861 01b7 0B       		.uleb128 0xb
 2862 01b8 3B       		.uleb128 0x3b
 2863 01b9 05       		.uleb128 0x5
 2864 01ba 49       		.uleb128 0x49
 2865 01bb 13       		.uleb128 0x13
 2866 01bc 02       		.uleb128 0x2
 2867 01bd 06       		.uleb128 0x6
 2868 01be 00       		.byte	0x0
 2869 01bf 00       		.byte	0x0
 2870 01c0 21       		.uleb128 0x21
 2871 01c1 34       		.uleb128 0x34
 2872 01c2 00       		.byte	0x0
 2873 01c3 03       		.uleb128 0x3
 2874 01c4 0E       		.uleb128 0xe
 2875 01c5 3A       		.uleb128 0x3a
 2876 01c6 0B       		.uleb128 0xb
 2877 01c7 3B       		.uleb128 0x3b
 2878 01c8 05       		.uleb128 0x5
 2879 01c9 49       		.uleb128 0x49
 2880 01ca 13       		.uleb128 0x13
 2881 01cb 00       		.byte	0x0
 2882 01cc 00       		.byte	0x0
 2883 01cd 22       		.uleb128 0x22
 2884 01ce 2E       		.uleb128 0x2e
 2885 01cf 00       		.byte	0x0
 2886 01d0 31       		.uleb128 0x31
 2887 01d1 13       		.uleb128 0x13
 2888 01d2 11       		.uleb128 0x11
 2889 01d3 01       		.uleb128 0x1
 2890 01d4 12       		.uleb128 0x12
 2891 01d5 01       		.uleb128 0x1
 2892 01d6 40       		.uleb128 0x40
 2893 01d7 0A       		.uleb128 0xa
 2894 01d8 00       		.byte	0x0
 2895 01d9 00       		.byte	0x0
 2896 01da 23       		.uleb128 0x23
 2897 01db 2E       		.uleb128 0x2e
 2898 01dc 01       		.byte	0x1
 2899 01dd 01       		.uleb128 0x1
 2900 01de 13       		.uleb128 0x13
 2901 01df 3F       		.uleb128 0x3f
 2902 01e0 0C       		.uleb128 0xc
 2903 01e1 03       		.uleb128 0x3
 2904 01e2 0E       		.uleb128 0xe
 2905 01e3 3A       		.uleb128 0x3a
 2906 01e4 0B       		.uleb128 0xb
 2907 01e5 3B       		.uleb128 0x3b
 2908 01e6 05       		.uleb128 0x5
ARM GAS  /cygdrive/c/Users/embedded/AppData/Local/Temp/ccelz1ts.s 			page 62


 2909 01e7 27       		.uleb128 0x27
 2910 01e8 0C       		.uleb128 0xc
 2911 01e9 49       		.uleb128 0x49
 2912 01ea 13       		.uleb128 0x13
 2913 01eb 11       		.uleb128 0x11
 2914 01ec 01       		.uleb128 0x1
 2915 01ed 12       		.uleb128 0x12
 2916 01ee 01       		.uleb128 0x1
 2917 01ef 40       		.uleb128 0x40
 2918 01f0 0A       		.uleb128 0xa
 2919 01f1 00       		.byte	0x0
 2920 01f2 00       		.byte	0x0
 2921 01f3 24       		.uleb128 0x24
 2922 01f4 1D       		.uleb128 0x1d
 2923 01f5 00       		.byte	0x0
 2924 01f6 31       		.uleb128 0x31
 2925 01f7 13       		.uleb128 0x13
 2926 01f8 11       		.uleb128 0x11
 2927 01f9 01       		.uleb128 0x1
 2928 01fa 12       		.uleb128 0x12
 2929 01fb 01       		.uleb128 0x1
 2930 01fc 58       		.uleb128 0x58
 2931 01fd 0B       		.uleb128 0xb
 2932 01fe 59       		.uleb128 0x59
 2933 01ff 05       		.uleb128 0x5
 2934 0200 00       		.byte	0x0
 2935 0201 00       		.byte	0x0
 2936 0202 25       		.uleb128 0x25
 2937 0203 2E       		.uleb128 0x2e
 2938 0204 01       		.byte	0x1
 2939 0205 01       		.uleb128 0x1
 2940 0206 13       		.uleb128 0x13
 2941 0207 03       		.uleb128 0x3
 2942 0208 0E       		.uleb128 0xe
 2943 0209 3A       		.uleb128 0x3a
 2944 020a 0B       		.uleb128 0xb
 2945 020b 3B       		.uleb128 0x3b
 2946 020c 0B       		.uleb128 0xb
 2947 020d 27       		.uleb128 0x27
 2948 020e 0C       		.uleb128 0xc
 2949 020f 20       		.uleb128 0x20
 2950 0210 0B       		.uleb128 0xb
 2951 0211 00       		.byte	0x0
 2952 0212 00       		.byte	0x0
 2953 0213 26       		.uleb128 0x26
 2954 0214 05       		.uleb128 0x5
 2955 0215 00       		.byte	0x0
 2956 0216 03       		.uleb128 0x3
 2957 0217 08       		.uleb128 0x8
 2958 0218 3A       		.uleb128 0x3a
 2959 0219 0B       		.uleb128 0xb
 2960 021a 3B       		.uleb128 0x3b
 2961 021b 0B       		.uleb128 0xb
 2962 021c 49       		.uleb128 0x49
 2963 021d 13       		.uleb128 0x13
 2964 021e 00       		.byte	0x0
 2965 021f 00       		.byte	0x0
ARM GAS  /cygdrive/c/Users/embedded/AppData/Local/Temp/ccelz1ts.s 			page 63


 2966 0220 27       		.uleb128 0x27
 2967 0221 34       		.uleb128 0x34
 2968 0222 00       		.byte	0x0
 2969 0223 03       		.uleb128 0x3
 2970 0224 08       		.uleb128 0x8
 2971 0225 3A       		.uleb128 0x3a
 2972 0226 0B       		.uleb128 0xb
 2973 0227 3B       		.uleb128 0x3b
 2974 0228 0B       		.uleb128 0xb
 2975 0229 49       		.uleb128 0x49
 2976 022a 13       		.uleb128 0x13
 2977 022b 00       		.byte	0x0
 2978 022c 00       		.byte	0x0
 2979 022d 28       		.uleb128 0x28
 2980 022e 34       		.uleb128 0x34
 2981 022f 00       		.byte	0x0
 2982 0230 03       		.uleb128 0x3
 2983 0231 0E       		.uleb128 0xe
 2984 0232 3A       		.uleb128 0x3a
 2985 0233 0B       		.uleb128 0xb
 2986 0234 3B       		.uleb128 0x3b
 2987 0235 0B       		.uleb128 0xb
 2988 0236 49       		.uleb128 0x49
 2989 0237 13       		.uleb128 0x13
 2990 0238 00       		.byte	0x0
 2991 0239 00       		.byte	0x0
 2992 023a 29       		.uleb128 0x29
 2993 023b 0A       		.uleb128 0xa
 2994 023c 00       		.byte	0x0
 2995 023d 03       		.uleb128 0x3
 2996 023e 0E       		.uleb128 0xe
 2997 023f 3A       		.uleb128 0x3a
 2998 0240 0B       		.uleb128 0xb
 2999 0241 3B       		.uleb128 0x3b
 3000 0242 0B       		.uleb128 0xb
 3001 0243 00       		.byte	0x0
 3002 0244 00       		.byte	0x0
 3003 0245 2A       		.uleb128 0x2a
 3004 0246 18       		.uleb128 0x18
 3005 0247 00       		.byte	0x0
 3006 0248 00       		.byte	0x0
 3007 0249 00       		.byte	0x0
 3008 024a 2B       		.uleb128 0x2b
 3009 024b 1D       		.uleb128 0x1d
 3010 024c 01       		.byte	0x1
 3011 024d 31       		.uleb128 0x31
 3012 024e 13       		.uleb128 0x13
 3013 024f 11       		.uleb128 0x11
 3014 0250 01       		.uleb128 0x1
 3015 0251 12       		.uleb128 0x12
 3016 0252 01       		.uleb128 0x1
 3017 0253 58       		.uleb128 0x58
 3018 0254 0B       		.uleb128 0xb
 3019 0255 59       		.uleb128 0x59
 3020 0256 05       		.uleb128 0x5
 3021 0257 00       		.byte	0x0
 3022 0258 00       		.byte	0x0
ARM GAS  /cygdrive/c/Users/embedded/AppData/Local/Temp/ccelz1ts.s 			page 64


 3023 0259 2C       		.uleb128 0x2c
 3024 025a 05       		.uleb128 0x5
 3025 025b 00       		.byte	0x0
 3026 025c 31       		.uleb128 0x31
 3027 025d 13       		.uleb128 0x13
 3028 025e 02       		.uleb128 0x2
 3029 025f 06       		.uleb128 0x6
 3030 0260 00       		.byte	0x0
 3031 0261 00       		.byte	0x0
 3032 0262 2D       		.uleb128 0x2d
 3033 0263 0B       		.uleb128 0xb
 3034 0264 01       		.byte	0x1
 3035 0265 11       		.uleb128 0x11
 3036 0266 01       		.uleb128 0x1
 3037 0267 12       		.uleb128 0x12
 3038 0268 01       		.uleb128 0x1
 3039 0269 00       		.byte	0x0
 3040 026a 00       		.byte	0x0
 3041 026b 2E       		.uleb128 0x2e
 3042 026c 34       		.uleb128 0x34
 3043 026d 00       		.byte	0x0
 3044 026e 31       		.uleb128 0x31
 3045 026f 13       		.uleb128 0x13
 3046 0270 02       		.uleb128 0x2
 3047 0271 06       		.uleb128 0x6
 3048 0272 00       		.byte	0x0
 3049 0273 00       		.byte	0x0
 3050 0274 2F       		.uleb128 0x2f
 3051 0275 0A       		.uleb128 0xa
 3052 0276 00       		.byte	0x0
 3053 0277 31       		.uleb128 0x31
 3054 0278 13       		.uleb128 0x13
 3055 0279 00       		.byte	0x0
 3056 027a 00       		.byte	0x0
 3057 027b 30       		.uleb128 0x30
 3058 027c 2E       		.uleb128 0x2e
 3059 027d 01       		.byte	0x1
 3060 027e 01       		.uleb128 0x1
 3061 027f 13       		.uleb128 0x13
 3062 0280 3F       		.uleb128 0x3f
 3063 0281 0C       		.uleb128 0xc
 3064 0282 03       		.uleb128 0x3
 3065 0283 0E       		.uleb128 0xe
 3066 0284 3A       		.uleb128 0x3a
 3067 0285 0B       		.uleb128 0xb
 3068 0286 3B       		.uleb128 0x3b
 3069 0287 05       		.uleb128 0x5
 3070 0288 27       		.uleb128 0x27
 3071 0289 0C       		.uleb128 0xc
 3072 028a 49       		.uleb128 0x49
 3073 028b 13       		.uleb128 0x13
 3074 028c 11       		.uleb128 0x11
 3075 028d 01       		.uleb128 0x1
 3076 028e 12       		.uleb128 0x12
 3077 028f 01       		.uleb128 0x1
 3078 0290 40       		.uleb128 0x40
 3079 0291 06       		.uleb128 0x6
ARM GAS  /cygdrive/c/Users/embedded/AppData/Local/Temp/ccelz1ts.s 			page 65


 3080 0292 00       		.byte	0x0
 3081 0293 00       		.byte	0x0
 3082 0294 31       		.uleb128 0x31
 3083 0295 34       		.uleb128 0x34
 3084 0296 00       		.byte	0x0
 3085 0297 03       		.uleb128 0x3
 3086 0298 08       		.uleb128 0x8
 3087 0299 3A       		.uleb128 0x3a
 3088 029a 0B       		.uleb128 0xb
 3089 029b 3B       		.uleb128 0x3b
 3090 029c 05       		.uleb128 0x5
 3091 029d 49       		.uleb128 0x49
 3092 029e 13       		.uleb128 0x13
 3093 029f 02       		.uleb128 0x2
 3094 02a0 06       		.uleb128 0x6
 3095 02a1 00       		.byte	0x0
 3096 02a2 00       		.byte	0x0
 3097 02a3 00       		.byte	0x0
 3098              		.section	.debug_pubnames,"",%progbits
 3099 0000 D6000000 		.4byte	0xd6
 3100 0004 0200     		.2byte	0x2
 3101 0006 00000000 		.4byte	.Ldebug_info0
 3102 000a 84050000 		.4byte	0x584
 3103 000e 64010000 		.4byte	0x164
 3104 0012 636F6E73 		.ascii	"consolInit\000"
 3104      6F6C496E 
 3104      697400
 3105 001d 77010000 		.4byte	0x177
 3106 0021 636F6E73 		.ascii	"consolSendChar\000"
 3106      6F6C5365 
 3106      6E644368 
 3106      617200
 3107 0030 92010000 		.4byte	0x192
 3108 0034 636F6E73 		.ascii	"consolSendCh\000"
 3108      6F6C5365 
 3108      6E644368 
 3108      00
 3109 0041 E5010000 		.4byte	0x1e5
 3110 0045 636F6E73 		.ascii	"consolSendString\000"
 3110      6F6C5365 
 3110      6E645374 
 3110      72696E67 
 3110      00
 3111 0056 10020000 		.4byte	0x210
 3112 005a 636F6E73 		.ascii	"consolSendNumber\000"
 3112      6F6C5365 
 3112      6E644E75 
 3112      6D626572 
 3112      00
 3113 006b D7020000 		.4byte	0x2d7
 3114 006f 636F6E73 		.ascii	"consolGetCh\000"
 3114      6F6C4765 
 3114      74436800 
 3115 007b E6020000 		.4byte	0x2e6
 3116 007f 636F6E73 		.ascii	"consolGetChar\000"
 3116      6F6C4765 
 3116      74436861 
ARM GAS  /cygdrive/c/Users/embedded/AppData/Local/Temp/ccelz1ts.s 			page 66


 3116      7200
 3117 008d 13030000 		.4byte	0x313
 3118 0091 636F6E73 		.ascii	"consolGetString\000"
 3118      6F6C4765 
 3118      74537472 
 3118      696E6700 
 3119 00a1 C7030000 		.4byte	0x3c7
 3120 00a5 73696D70 		.ascii	"simplePrintf\000"
 3120      6C655072 
 3120      696E7466 
 3120      00
 3121 00b2 58040000 		.4byte	0x458
 3122 00b6 636F6E73 		.ascii	"consolGetIntNum\000"
 3122      6F6C4765 
 3122      74496E74 
 3122      4E756D00 
 3123 00c6 EF040000 		.4byte	0x4ef
 3124 00ca 636F6E73 		.ascii	"consolScanf\000"
 3124      6F6C5363 
 3124      616E6600 
 3125 00d6 00000000 		.4byte	0x0
 3126              		.section	.debug_aranges,"",%progbits
 3127 0000 1C000000 		.4byte	0x1c
 3128 0004 0200     		.2byte	0x2
 3129 0006 00000000 		.4byte	.Ldebug_info0
 3130 000a 04       		.byte	0x4
 3131 000b 00       		.byte	0x0
 3132 000c 0000     		.2byte	0x0
 3133 000e 0000     		.2byte	0x0
 3134 0010 00000000 		.4byte	.Ltext0
 3135 0014 7C060000 		.4byte	.Letext0-.Ltext0
 3136 0018 00000000 		.4byte	0x0
 3137 001c 00000000 		.4byte	0x0
 3138              		.section	.debug_str,"MS",%progbits,1
 3139              	.LASF29:
 3140 0000 70436861 		.ascii	"pChar\000"
 3140      7200
 3141              	.LASF41:
 3142 0006 774C6173 		.ascii	"wLastIndex\000"
 3142      74496E64 
 3142      657800
 3143              	.LASF36:
 3144 0011 73696D70 		.ascii	"simplePrintf\000"
 3144      6C655072 
 3144      696E7466 
 3144      00
 3145              	.LASF37:
 3146 001e 636F6E73 		.ascii	"consolGetIntNum\000"
 3146      6F6C4765 
 3146      74496E74 
 3146      4E756D00 
 3147              	.LASF26:
 3148 002e 6E756D62 		.ascii	"numberAbs\000"
 3148      65724162 
 3148      7300
 3149              	.LASF16:
 3150 0038 636F6E73 		.ascii	"consolGetCh\000"
ARM GAS  /cygdrive/c/Users/embedded/AppData/Local/Temp/ccelz1ts.s 			page 67


 3150      6F6C4765 
 3150      74436800 
 3151              	.LASF22:
 3152 0044 636F6E73 		.ascii	"consolSendNumber\000"
 3152      6F6C5365 
 3152      6E644E75 
 3152      6D626572 
 3152      00
 3153              	.LASF18:
 3154 0055 636F6E73 		.ascii	"consolSendChar\000"
 3154      6F6C5365 
 3154      6E644368 
 3154      617200
 3155              	.LASF5:
 3156 0064 73686F72 		.ascii	"short int\000"
 3156      7420696E 
 3156      7400
 3157              	.LASF44:
 3158 006e 70466D74 		.ascii	"pFmt\000"
 3158      00
 3159              	.LASF9:
 3160 0073 5F5F676E 		.ascii	"__gnuc_va_list\000"
 3160      75635F76 
 3160      615F6C69 
 3160      737400
 3161              	.LASF32:
 3162 0082 72784368 		.ascii	"rxChar\000"
 3162      617200
 3163              	.LASF27:
 3164 0089 636F756E 		.ascii	"count\000"
 3164      7400
 3165              	.LASF48:
 3166 008f 474E5520 		.ascii	"GNU C 4.1.1\000"
 3166      4320342E 
 3166      312E3100 
 3167              	.LASF21:
 3168 009b 70537472 		.ascii	"pString\000"
 3168      696E6700 
 3169              	.LASF38:
 3170 00a3 61625374 		.ascii	"abStr\000"
 3170      7200
 3171              	.LASF45:
 3172 00a9 70417267 		.ascii	"pArg\000"
 3172      00
 3173              	.LASF34:
 3174 00ae 73696D70 		.ascii	"simplePrint\000"
 3174      6C655072 
 3174      696E7400 
 3175              	.LASF51:
 3176 00ba 72657377 		.ascii	"reswitch\000"
 3176      69746368 
 3176      00
 3177              	.LASF10:
 3178 00c3 76615F6C 		.ascii	"va_list\000"
 3178      69737400 
 3179              	.LASF1:
 3180 00cb 6C6F6E67 		.ascii	"long long int\000"
ARM GAS  /cygdrive/c/Users/embedded/AppData/Local/Temp/ccelz1ts.s 			page 68


 3180      206C6F6E 
 3180      6720696E 
 3180      7400
 3181              	.LASF0:
 3182 00d9 6C6F6E67 		.ascii	"long int\000"
 3182      20696E74 
 3182      00
 3183              	.LASF14:
 3184 00e2 62617365 		.ascii	"base\000"
 3184      00
 3185              	.LASF11:
 3186 00e7 63686172 		.ascii	"charToSend\000"
 3186      546F5365 
 3186      6E6400
 3187              	.LASF33:
 3188 00f2 7072696E 		.ascii	"printNum\000"
 3188      744E756D 
 3188      00
 3189              	.LASF35:
 3190 00fb 6C666C61 		.ascii	"lflag\000"
 3190      6700
 3191              	.LASF43:
 3192 0101 636F6E73 		.ascii	"consolScanf\000"
 3192      6F6C5363 
 3192      616E6600 
 3193              	.LASF50:
 3194 010d 2F637967 		.ascii	"/cygdrive/c/Embedded/eclipse/Demo/2138/startup\000"
 3194      64726976 
 3194      652F632F 
 3194      456D6265 
 3194      64646564 
 3195              	.LASF17:
 3196 013c 636F6E73 		.ascii	"consolInit\000"
 3196      6F6C496E 
 3196      697400
 3197              	.LASF4:
 3198 0147 756E7369 		.ascii	"unsigned char\000"
 3198      676E6564 
 3198      20636861 
 3198      7200
 3199              	.LASF40:
 3200 0155 774D696E 		.ascii	"wMinus\000"
 3200      757300
 3201              	.LASF15:
 3202 015c 68657843 		.ascii	"hexChars\000"
 3202      68617273 
 3202      00
 3203              	.LASF23:
 3204 0165 6E6F4469 		.ascii	"noDigits\000"
 3204      67697473 
 3204      00
 3205              	.LASF8:
 3206 016e 6C6F6E67 		.ascii	"long long unsigned int\000"
 3206      206C6F6E 
 3206      6720756E 
 3206      7369676E 
 3206      65642069 
ARM GAS  /cygdrive/c/Users/embedded/AppData/Local/Temp/ccelz1ts.s 			page 69


 3207              	.LASF20:
 3208 0185 636F6E73 		.ascii	"consolSendString\000"
 3208      6F6C5365 
 3208      6E645374 
 3208      72696E67 
 3208      00
 3209              	.LASF2:
 3210 0196 756E7369 		.ascii	"unsigned int\000"
 3210      676E6564 
 3210      20696E74 
 3210      00
 3211              	.LASF31:
 3212 01a3 70537472 		.ascii	"pString2\000"
 3212      696E6732 
 3212      00
 3213              	.LASF19:
 3214 01ac 636F6E73 		.ascii	"consolSendCh\000"
 3214      6F6C5365 
 3214      6E644368 
 3214      00
 3215              	.LASF24:
 3216 01b9 7369676E 		.ascii	"sign\000"
 3216      00
 3217              	.LASF7:
 3218 01be 73686F72 		.ascii	"short unsigned int\000"
 3218      7420756E 
 3218      7369676E 
 3218      65642069 
 3218      6E7400
 3219              	.LASF6:
 3220 01d1 63686172 		.ascii	"char\000"
 3220      00
 3221              	.LASF39:
 3222 01d6 77426173 		.ascii	"wBase\000"
 3222      6500
 3223              	.LASF49:
 3224 01dc 636F6E73 		.ascii	"consol.c\000"
 3224      6F6C2E63 
 3224      00
 3225              	.LASF25:
 3226 01e5 70427566 		.ascii	"pBuf\000"
 3226      00
 3227              	.LASF47:
 3228 01ea 70496E74 		.ascii	"pInt\000"
 3228      00
 3229              	.LASF3:
 3230 01ef 6C6F6E67 		.ascii	"long unsigned int\000"
 3230      20756E73 
 3230      69676E65 
 3230      6420696E 
 3230      7400
 3231              	.LASF12:
 3232 0201 6F757470 		.ascii	"outputFnk\000"
 3232      7574466E 
 3232      6B00
 3233              	.LASF30:
 3234 020b 636F6E73 		.ascii	"consolGetString\000"
ARM GAS  /cygdrive/c/Users/embedded/AppData/Local/Temp/ccelz1ts.s 			page 70


 3234      6F6C4765 
 3234      74537472 
 3234      696E6700 
 3235              	.LASF46:
 3236 021b 63686172 		.ascii	"character\000"
 3236      61637465 
 3236      7200
 3237              	.LASF28:
 3238 0225 636F6E73 		.ascii	"consolGetChar\000"
 3238      6F6C4765 
 3238      74436861 
 3238      7200
 3239              	.LASF42:
 3240 0233 77526573 		.ascii	"wResult\000"
 3240      756C7400 
 3241              	.LASF13:
 3242 023b 6E756D62 		.ascii	"number\000"
 3242      657200
 3243              		.ident	"GCC: (GNU) 4.1.1"
ARM GAS  /cygdrive/c/Users/embedded/AppData/Local/Temp/ccelz1ts.s 			page 71


DEFINED SYMBOLS
                            *ABS*:00000000 consol.c
/cygdrive/c/Users/embedded/AppData/Local/Temp/ccelz1ts.s:19     .text:00000000 printNum
/cygdrive/c/Users/embedded/AppData/Local/Temp/ccelz1ts.s:27     .text:00000000 $a
/cygdrive/c/Users/embedded/AppData/Local/Temp/ccelz1ts.s:80     .text:00000080 $d
/cygdrive/c/Users/embedded/AppData/Local/Temp/ccelz1ts.s:86     .text:00000084 consolInit
/cygdrive/c/Users/embedded/AppData/Local/Temp/ccelz1ts.s:94     .text:00000084 $a
/cygdrive/c/Users/embedded/AppData/Local/Temp/ccelz1ts.s:129    .text:000000cc $d
/cygdrive/c/Users/embedded/AppData/Local/Temp/ccelz1ts.s:136    .text:000000d4 consolSendChar
/cygdrive/c/Users/embedded/AppData/Local/Temp/ccelz1ts.s:145    .text:000000d4 $a
/cygdrive/c/Users/embedded/AppData/Local/Temp/ccelz1ts.s:159    .text:000000f0 $d
/cygdrive/c/Users/embedded/AppData/Local/Temp/ccelz1ts.s:165    .text:000000f4 consolSendCh
/cygdrive/c/Users/embedded/AppData/Local/Temp/ccelz1ts.s:173    .text:000000f4 $a
/cygdrive/c/Users/embedded/AppData/Local/Temp/ccelz1ts.s:211    .text:00000134 $d
/cygdrive/c/Users/embedded/AppData/Local/Temp/ccelz1ts.s:217    .text:00000138 consolSendString
/cygdrive/c/Users/embedded/AppData/Local/Temp/ccelz1ts.s:224    .text:00000138 $a
/cygdrive/c/Users/embedded/AppData/Local/Temp/ccelz1ts.s:251    .text:00000164 consolSendNumber
/cygdrive/c/Users/embedded/AppData/Local/Temp/ccelz1ts.s:385    .text:00000278 $d
/cygdrive/c/Users/embedded/AppData/Local/Temp/ccelz1ts.s:980    .rodata:00000000 hexChars.2029
/cygdrive/c/Users/embedded/AppData/Local/Temp/ccelz1ts.s:391    .text:0000027c consolGetCh
/cygdrive/c/Users/embedded/AppData/Local/Temp/ccelz1ts.s:401    .text:0000027c $a
/cygdrive/c/Users/embedded/AppData/Local/Temp/ccelz1ts.s:413    .text:00000298 $d
/cygdrive/c/Users/embedded/AppData/Local/Temp/ccelz1ts.s:419    .text:0000029c consolGetChar
/cygdrive/c/Users/embedded/AppData/Local/Temp/ccelz1ts.s:428    .text:0000029c $a
/cygdrive/c/Users/embedded/AppData/Local/Temp/ccelz1ts.s:445    .text:000002bc $d
/cygdrive/c/Users/embedded/AppData/Local/Temp/ccelz1ts.s:456    .text:000002c0 consolGetString
/cygdrive/c/Users/embedded/AppData/Local/Temp/ccelz1ts.s:463    .text:000002c0 $a
/cygdrive/c/Users/embedded/AppData/Local/Temp/ccelz1ts.s:534    .text:00000330 $d
/cygdrive/c/Users/embedded/AppData/Local/Temp/ccelz1ts.s:541    .text:00000338 simplePrintf
/cygdrive/c/Users/embedded/AppData/Local/Temp/ccelz1ts.s:548    .text:00000338 $a
/cygdrive/c/Users/embedded/AppData/Local/Temp/ccelz1ts.s:746    .text:000004b4 $d
/cygdrive/c/Users/embedded/AppData/Local/Temp/ccelz1ts.s:752    .text:000004b8 consolGetIntNum
/cygdrive/c/Users/embedded/AppData/Local/Temp/ccelz1ts.s:758    .text:000004b8 $a
/cygdrive/c/Users/embedded/AppData/Local/Temp/ccelz1ts.s:865    .text:00000598 consolScanf
/cygdrive/c/Users/embedded/AppData/Local/Temp/ccelz1ts.s:973    .text:00000678 $d

UNDEFINED SYMBOLS
__umodsi3
__udivsi3
memcpy
strlen
atoi
