ARM GAS  /cygdrive/c/Users/embedded/AppData/Local/Temp/ccPBFbKh.s 			page 1


   1              		.code	16
   2              		.file	"pca9532.c"
   3              		.section	.debug_abbrev,"",%progbits
   4              	.Ldebug_abbrev0:
   5              		.section	.debug_info,"",%progbits
   6              	.Ldebug_info0:
   7              		.section	.debug_line,"",%progbits
   8              	.Ldebug_line0:
   9 0000 92000000 		.text
   9      02005400 
   9      00000201 
   9      FB0E0D00 
   9      01010101 
  10              	.Ltext0:
  11              		.align	2
  12              		.global	getPca9532Pin
  13              		.code 16
  14              		.thumb_func
  15              		.type	getPca9532Pin, %function
  16              	getPca9532Pin:
  17              	.LFB4:
  18              		.file 1 "pca9532.c"
   1:pca9532.c     **** /******************************************************************************
   2:pca9532.c     ****  *
   3:pca9532.c     ****  * Copyright:
   4:pca9532.c     ****  *    (C) 2006 Embedded Artists AB
   5:pca9532.c     ****  *
   6:pca9532.c     ****  * File:
   7:pca9532.c     ****  *    pca9532.c
   8:pca9532.c     ****  *
   9:pca9532.c     ****  * Description:
  10:pca9532.c     ****  *    Implements hardware specific routines
  11:pca9532.c     ****  *
  12:pca9532.c     ****  *****************************************************************************/
  13:pca9532.c     **** 
  14:pca9532.c     **** /******************************************************************************
  15:pca9532.c     ****  * Includes
  16:pca9532.c     ****  *****************************************************************************/
  17:pca9532.c     **** #include "../pre_emptive_os/api/osapi.h"
  18:pca9532.c     **** #include "../pre_emptive_os/api/general.h"
  19:pca9532.c     **** #include <lpc2xxx.h>
  20:pca9532.c     **** #include <printf_P.h>
  21:pca9532.c     **** #include "i2c.h"
  22:pca9532.c     **** #include "eeprom.h"
  23:pca9532.c     **** #include "pca9532.h"
  24:pca9532.c     **** 
  25:pca9532.c     **** /******************************************************************************
  26:pca9532.c     ****  * Typedefs and defines
  27:pca9532.c     ****  *****************************************************************************/
  28:pca9532.c     **** 
  29:pca9532.c     **** 
  30:pca9532.c     **** /*****************************************************************************
  31:pca9532.c     ****  * Global variables
  32:pca9532.c     ****  ****************************************************************************/
  33:pca9532.c     **** 
  34:pca9532.c     **** /*****************************************************************************
  35:pca9532.c     ****  * Local variables
ARM GAS  /cygdrive/c/Users/embedded/AppData/Local/Temp/ccPBFbKh.s 			page 2


  36:pca9532.c     ****  ****************************************************************************/
  37:pca9532.c     **** 
  38:pca9532.c     **** /*****************************************************************************
  39:pca9532.c     ****  * Local prototypes
  40:pca9532.c     ****  ****************************************************************************/
  41:pca9532.c     **** 
  42:pca9532.c     **** 
  43:pca9532.c     **** /*****************************************************************************
  44:pca9532.c     ****  *
  45:pca9532.c     ****  * Description:
  46:pca9532.c     ****  *    Initialize the io-pins and find out if HW is ver 1.0 or ver 1.1
  47:pca9532.c     ****  *
  48:pca9532.c     ****  ****************************************************************************/
  49:pca9532.c     **** tBool
  50:pca9532.c     **** pca9532Init(void)
  51:pca9532.c     **** {
  52:pca9532.c     ****   tU8 initCommand[] = {0x12, 0x97, 0x80, 0x00, 0x40, 0x00, 0x00, 0x00, 0x00};
  53:pca9532.c     ****   //                                                         04 = LCD_RST# low
  54:pca9532.c     ****   //                                                         10 = BT_RST# low
  55:pca9532.c     **** 
  56:pca9532.c     ****   //initialize PCA9532
  57:pca9532.c     ****   if (I2C_CODE_OK == pca9532(initCommand, sizeof(initCommand), NULL, 0))
  58:pca9532.c     ****     return TRUE;
  59:pca9532.c     ****   else
  60:pca9532.c     ****     return FALSE;
  61:pca9532.c     **** }
  62:pca9532.c     **** 
  63:pca9532.c     **** 
  64:pca9532.c     **** /*****************************************************************************
  65:pca9532.c     ****  *
  66:pca9532.c     ****  * Description:
  67:pca9532.c     ****  *
  68:pca9532.c     ****  ****************************************************************************/
  69:pca9532.c     **** void
  70:pca9532.c     **** setPca9532Pin(tU8 pinNum, tU8 value)
  71:pca9532.c     **** {
  72:pca9532.c     ****   tU8 command[] = {0x00, 0x00};
  73:pca9532.c     ****   tU8 regValue;
  74:pca9532.c     ****   tU8 mask;
  75:pca9532.c     ****   
  76:pca9532.c     ****   if (pinNum < 4)
  77:pca9532.c     ****     command[0] = 0x06;
  78:pca9532.c     ****   else if (pinNum < 8)
  79:pca9532.c     ****     command[0] = 0x07;
  80:pca9532.c     ****   else if (pinNum < 12)
  81:pca9532.c     ****     command[0] = 0x08;
  82:pca9532.c     ****   else
  83:pca9532.c     ****     command[0] = 0x09;
  84:pca9532.c     ****     
  85:pca9532.c     ****   pca9532(command, 1, &regValue, 1);
  86:pca9532.c     ****   
  87:pca9532.c     ****   mask = (3 << 2*(pinNum % 4));
  88:pca9532.c     ****   
  89:pca9532.c     ****   regValue &= ~mask;
  90:pca9532.c     ****   
  91:pca9532.c     ****   if (value == 0)
  92:pca9532.c     ****     command[1] = 0x01;
ARM GAS  /cygdrive/c/Users/embedded/AppData/Local/Temp/ccPBFbKh.s 			page 3


  93:pca9532.c     ****   else
  94:pca9532.c     ****     command[1] = 0x00;
  95:pca9532.c     ****     
  96:pca9532.c     ****   command[1] <<= 2*(pinNum % 4);
  97:pca9532.c     ****   
  98:pca9532.c     ****   command[1] |= regValue;
  99:pca9532.c     **** 
 100:pca9532.c     ****   pca9532(command, sizeof(command), NULL, 0);
 101:pca9532.c     **** }
 102:pca9532.c     **** 
 103:pca9532.c     **** 
 104:pca9532.c     **** /*****************************************************************************
 105:pca9532.c     ****  *
 106:pca9532.c     ****  * Description:
 107:pca9532.c     ****  *
 108:pca9532.c     ****  ****************************************************************************/
 109:pca9532.c     **** tU16
 110:pca9532.c     **** getPca9532Pin(void)
 111:pca9532.c     **** {
  19              		.loc 1 111 0
  20 0000 10B5     		push	{r4, lr}
  21              	.LCFI0:
  22 0002 81B0     		sub	sp, sp, #4
  23              	.LCFI1:
 112:pca9532.c     ****   tU8 command[] = {0x19};
  24              		.loc 1 112 0
  25 0004 6846     		mov	r0, sp
  26 0006 0330     		add	r0, r0, #3
  27 0008 1923     		mov	r3, #25
 113:pca9532.c     ****   tU8 regValue[3];
 114:pca9532.c     ****   
 115:pca9532.c     ****   pca9532(command, 1, regValue, 3);
  28              		.loc 1 115 0
  29 000a 6A46     		mov	r2, sp
  30              		.loc 1 112 0
  31 000c 0370     		strb	r3, [r0]
  32              		.loc 1 115 0
  33 000e 0121     		mov	r1, #1
  34 0010 0323     		mov	r3, #3
  35 0012 FFF7FEFF 		bl	pca9532
  36 0016 6C46     		mov	r4, sp
  37 0018 A378     		ldrb	r3, [r4, #2]
  38 001a 6078     		ldrb	r0, [r4, #1]
  39 001c 1B02     		lsl	r3, r3, #8
  40 001e 1843     		orr	r0, r0, r3
 116:pca9532.c     ****   
 117:pca9532.c     ****   return (tU16)regValue[1] | ((tU16)regValue[2] << 8);
 118:pca9532.c     **** }
  41              		.loc 1 118 0
  42 0020 01B0     		add	sp, sp, #4
  43              		@ sp needed for prologue
  44 0022 10BC     		pop	{r4}
  45 0024 02BC     		pop	{r1}
  46 0026 0847     		bx	r1
  47              	.LFE4:
  48              		.size	getPca9532Pin, .-getPca9532Pin
  49              		.align	2
ARM GAS  /cygdrive/c/Users/embedded/AppData/Local/Temp/ccPBFbKh.s 			page 4


  50              		.global	setPca9532Pin
  51              		.code 16
  52              		.thumb_func
  53              		.type	setPca9532Pin, %function
  54              	setPca9532Pin:
  55              	.LFB3:
  56              		.loc 1 71 0
  57 0028 F0B5     		push	{r4, r5, r6, r7, lr}
  58              	.LCFI2:
  59              	.LVL0:
  60 002a 81B0     		sub	sp, sp, #4
  61              	.LCFI3:
  62              		.loc 1 72 0
  63 002c 6C46     		mov	r4, sp
  64              		.loc 1 71 0
  65 002e 0006     		lsl	r0, r0, #24
  66              	.LVL1:
  67 0030 0906     		lsl	r1, r1, #24
  68              	.LVL2:
  69              		.loc 1 72 0
  70 0032 0134     		add	r4, r4, #1
  71              		.loc 1 71 0
  72 0034 050E     		lsr	r5, r0, #24
  73              	.LVL3:
  74 0036 0F0E     		lsr	r7, r1, #24
  75              	.LVL4:
  76              		.loc 1 72 0
  77 0038 201C     		mov	r0, r4
  78 003a 1D49     		ldr	r1, .L17
  79 003c 0222     		mov	r2, #2
  80 003e FFF7FEFF 		bl	memcpy
  81              		.loc 1 76 0
  82 0042 032D     		cmp	r5, #3
  83 0044 01D8     		bhi	.L4
  84              		.loc 1 77 0
  85 0046 0623     		mov	r3, #6
  86 0048 08E0     		b	.L15
  87              	.L4:
  88              		.loc 1 78 0
  89 004a 072D     		cmp	r5, #7
  90 004c 01D8     		bhi	.L7
  91              		.loc 1 79 0
  92 004e 0723     		mov	r3, #7
  93 0050 04E0     		b	.L15
  94              	.L7:
  95              		.loc 1 80 0
  96 0052 0B2D     		cmp	r5, #11
  97 0054 01D8     		bhi	.L9
  98              		.loc 1 81 0
  99 0056 0823     		mov	r3, #8
 100 0058 00E0     		b	.L15
 101              	.L9:
 102              		.loc 1 83 0
 103 005a 0923     		mov	r3, #9
 104              	.L15:
 105 005c 2370     		strb	r3, [r4]
 106              		.loc 1 85 0
ARM GAS  /cygdrive/c/Users/embedded/AppData/Local/Temp/ccPBFbKh.s 			page 5


 107 005e 6E46     		mov	r6, sp
 108 0060 6C46     		mov	r4, sp
 109 0062 0334     		add	r4, r4, #3
 110 0064 0136     		add	r6, r6, #1
 111 0066 0121     		mov	r1, #1
 112 0068 221C     		mov	r2, r4
 113 006a 0123     		mov	r3, #1
 114 006c 301C     		mov	r0, r6
 115 006e FFF7FEFF 		bl	pca9532
 116              		.loc 1 87 0
 117 0072 0323     		mov	r3, #3
 118 0074 2A1C     		mov	r2, r5
 119 0076 1A40     		and	r2, r2, r3
 120 0078 5100     		lsl	r1, r2, #1
 121              	.LVL5:
 122              		.loc 1 89 0
 123 007a 2278     		ldrb	r2, [r4]
 124 007c 8B40     		lsl	r3, r3, r1
 125 007e 9A43     		bic	r2, r2, r3
 126              		.loc 1 91 0
 127 0080 002F     		cmp	r7, #0
 128 0082 01D1     		bne	.L11
 129              		.loc 1 92 0
 130 0084 0123     		mov	r3, #1
 131 0086 00E0     		b	.L16
 132              	.L11:
 133              		.loc 1 94 0
 134 0088 0023     		mov	r3, #0
 135              	.L16:
 136 008a 7370     		strb	r3, [r6, #1]
 137              		.loc 1 98 0
 138 008c 6846     		mov	r0, sp
 139 008e 0130     		add	r0, r0, #1
 140 0090 4378     		ldrb	r3, [r0, #1]
 141 0092 8B40     		lsl	r3, r3, r1
 142 0094 1343     		orr	r3, r3, r2
 143 0096 4370     		strb	r3, [r0, #1]
 144              		.loc 1 89 0
 145 0098 6B46     		mov	r3, sp
 146 009a 0333     		add	r3, r3, #3
 147 009c 1A70     		strb	r2, [r3]
 148              		.loc 1 100 0
 149 009e 0221     		mov	r1, #2
 150 00a0 0022     		mov	r2, #0
 151 00a2 0023     		mov	r3, #0
 152 00a4 FFF7FEFF 		bl	pca9532
 153              		.loc 1 101 0
 154 00a8 01B0     		add	sp, sp, #4
 155              		@ sp needed for prologue
 156              	.LVL6:
 157              	.LVL7:
 158 00aa F0BC     		pop	{r4, r5, r6, r7}
 159 00ac 01BC     		pop	{r0}
 160 00ae 0047     		bx	r0
 161              	.L18:
 162              		.align	2
 163              	.L17:
ARM GAS  /cygdrive/c/Users/embedded/AppData/Local/Temp/ccPBFbKh.s 			page 6


 164 00b0 00000000 		.word	C.1.1456
 165              	.LFE3:
 166              		.size	setPca9532Pin, .-setPca9532Pin
 167              		.align	2
 168              		.global	pca9532Init
 169              		.code 16
 170              		.thumb_func
 171              		.type	pca9532Init, %function
 172              	pca9532Init:
 173              	.LFB2:
 174              		.loc 1 51 0
 175 00b4 10B5     		push	{r4, lr}
 176              	.LCFI4:
 177 00b6 83B0     		sub	sp, sp, #12
 178              	.LCFI5:
 179              		.loc 1 52 0
 180 00b8 6C46     		mov	r4, sp
 181 00ba 0334     		add	r4, r4, #3
 182 00bc 0A49     		ldr	r1, .L22
 183 00be 0922     		mov	r2, #9
 184 00c0 201C     		mov	r0, r4
 185 00c2 FFF7FEFF 		bl	memcpy
 186              		.loc 1 57 0
 187 00c6 0023     		mov	r3, #0
 188 00c8 201C     		mov	r0, r4
 189 00ca 0921     		mov	r1, #9
 190 00cc 0022     		mov	r2, #0
 191 00ce FFF7FEFF 		bl	pca9532
 192 00d2 0006     		lsl	r0, r0, #24
 193 00d4 0016     		asr	r0, r0, #24
 194 00d6 0023     		mov	r3, #0
 195 00d8 0128     		cmp	r0, #1
 196 00da 00D1     		bne	.L20
 197 00dc 0123     		mov	r3, #1
 198              	.L20:
 199              		.loc 1 61 0
 200 00de 181C     		mov	r0, r3
 201 00e0 03B0     		add	sp, sp, #12
 202              		@ sp needed for prologue
 203 00e2 10BC     		pop	{r4}
 204 00e4 02BC     		pop	{r1}
 205 00e6 0847     		bx	r1
 206              	.L23:
 207              		.align	2
 208              	.L22:
 209 00e8 02000000 		.word	C.0.1446
 210              	.LFE2:
 211              		.size	pca9532Init, .-pca9532Init
 212              		.section	.rodata
 213              		.type	C.1.1456, %object
 214              		.size	C.1.1456, 2
 215              	C.1.1456:
 216 0000 0000     		.space	2
 217              		.type	C.0.1446, %object
 218              		.size	C.0.1446, 9
 219              	C.0.1446:
 220 0002 12       		.byte	18
ARM GAS  /cygdrive/c/Users/embedded/AppData/Local/Temp/ccPBFbKh.s 			page 7


 221 0003 97       		.byte	-105
 222 0004 80       		.byte	-128
 223 0005 00       		.byte	0
 224 0006 40       		.byte	64
 225 0007 00       		.byte	0
 226 0008 00       		.byte	0
 227 0009 00       		.byte	0
 228 000a 00       		.byte	0
 229              		.section	.debug_frame,"",%progbits
 230              	.Lframe0:
 231 0000 0C000000 		.4byte	.LECIE0-.LSCIE0
 232              	.LSCIE0:
 233 0004 FFFFFFFF 		.4byte	0xffffffff
 234 0008 01       		.byte	0x1
 235 0009 00       		.ascii	"\000"
 236 000a 01       		.uleb128 0x1
 237 000b 7C       		.sleb128 -4
 238 000c 0E       		.byte	0xe
 239 000d 0C       		.byte	0xc
 240 000e 0D       		.uleb128 0xd
 241 000f 00       		.uleb128 0x0
 242              		.align	2
 243              	.LECIE0:
 244              	.LSFDE0:
 245 0010 18000000 		.4byte	.LEFDE0-.LASFDE0
 246              	.LASFDE0:
 247 0014 00000000 		.4byte	.Lframe0
 248 0018 00000000 		.4byte	.LFB4
 249 001c 28000000 		.4byte	.LFE4-.LFB4
 250 0020 42       		.byte	0x4
 251              		.4byte	.LCFI0-.LFB4
 252 0021 0E       		.byte	0xe
 253 0022 08       		.uleb128 0x8
 254 0023 84       		.byte	0x84
 255 0024 02       		.uleb128 0x2
 256 0025 8E       		.byte	0x8e
 257 0026 01       		.uleb128 0x1
 258 0027 42       		.byte	0x4
 259              		.4byte	.LCFI1-.LCFI0
 260 0028 0E       		.byte	0xe
 261 0029 0C       		.uleb128 0xc
 262 002a 0000     		.align	2
 263              	.LEFDE0:
 264              	.LSFDE2:
 265 002c 1C000000 		.4byte	.LEFDE2-.LASFDE2
 266              	.LASFDE2:
 267 0030 00000000 		.4byte	.Lframe0
 268 0034 28000000 		.4byte	.LFB3
 269 0038 8C000000 		.4byte	.LFE3-.LFB3
 270 003c 42       		.byte	0x4
 271              		.4byte	.LCFI2-.LFB3
 272 003d 0E       		.byte	0xe
 273 003e 14       		.uleb128 0x14
 274 003f 84       		.byte	0x84
 275 0040 05       		.uleb128 0x5
 276 0041 85       		.byte	0x85
 277 0042 04       		.uleb128 0x4
ARM GAS  /cygdrive/c/Users/embedded/AppData/Local/Temp/ccPBFbKh.s 			page 8


 278 0043 86       		.byte	0x86
 279 0044 03       		.uleb128 0x3
 280 0045 87       		.byte	0x87
 281 0046 02       		.uleb128 0x2
 282 0047 8E       		.byte	0x8e
 283 0048 01       		.uleb128 0x1
 284 0049 42       		.byte	0x4
 285              		.4byte	.LCFI3-.LCFI2
 286 004a 0E       		.byte	0xe
 287 004b 18       		.uleb128 0x18
 288              		.align	2
 289              	.LEFDE2:
 290              	.LSFDE4:
 291 004c 18000000 		.4byte	.LEFDE4-.LASFDE4
 292              	.LASFDE4:
 293 0050 00000000 		.4byte	.Lframe0
 294 0054 B4000000 		.4byte	.LFB2
 295 0058 38000000 		.4byte	.LFE2-.LFB2
 296 005c 42       		.byte	0x4
 297              		.4byte	.LCFI4-.LFB2
 298 005d 0E       		.byte	0xe
 299 005e 08       		.uleb128 0x8
 300 005f 84       		.byte	0x84
 301 0060 02       		.uleb128 0x2
 302 0061 8E       		.byte	0x8e
 303 0062 01       		.uleb128 0x1
 304 0063 42       		.byte	0x4
 305              		.4byte	.LCFI5-.LCFI4
 306 0064 0E       		.byte	0xe
 307 0065 14       		.uleb128 0x14
 308 0066 0000     		.align	2
 309              	.LEFDE4:
 310              		.file 2 "./startup/../pre_emptive_os/api/../api/general.h"
 311              		.text
 312              	.Letext0:
 313              		.section	.debug_loc,"",%progbits
 314              	.Ldebug_loc0:
 315              	.LLST0:
 316 0000 00000000 		.4byte	.LFB4-.Ltext0
 317 0004 02000000 		.4byte	.LCFI0-.Ltext0
 318 0008 0100     		.2byte	0x1
 319 000a 5D       		.byte	0x5d
 320 000b 02000000 		.4byte	.LCFI0-.Ltext0
 321 000f 04000000 		.4byte	.LCFI1-.Ltext0
 322 0013 0200     		.2byte	0x2
 323 0015 7D       		.byte	0x7d
 324 0016 08       		.sleb128 8
 325 0017 04000000 		.4byte	.LCFI1-.Ltext0
 326 001b 28000000 		.4byte	.LFE4-.Ltext0
 327 001f 0200     		.2byte	0x2
 328 0021 7D       		.byte	0x7d
 329 0022 0C       		.sleb128 12
 330 0023 00000000 		.4byte	0x0
 331 0027 00000000 		.4byte	0x0
 332              	.LLST1:
 333 002b 28000000 		.4byte	.LFB3-.Ltext0
 334 002f 2A000000 		.4byte	.LCFI2-.Ltext0
ARM GAS  /cygdrive/c/Users/embedded/AppData/Local/Temp/ccPBFbKh.s 			page 9


 335 0033 0100     		.2byte	0x1
 336 0035 5D       		.byte	0x5d
 337 0036 2A000000 		.4byte	.LCFI2-.Ltext0
 338 003a 2C000000 		.4byte	.LCFI3-.Ltext0
 339 003e 0200     		.2byte	0x2
 340 0040 7D       		.byte	0x7d
 341 0041 14       		.sleb128 20
 342 0042 2C000000 		.4byte	.LCFI3-.Ltext0
 343 0046 B4000000 		.4byte	.LFE3-.Ltext0
 344 004a 0200     		.2byte	0x2
 345 004c 7D       		.byte	0x7d
 346 004d 18       		.sleb128 24
 347 004e 00000000 		.4byte	0x0
 348 0052 00000000 		.4byte	0x0
 349              	.LLST2:
 350 0056 2A000000 		.4byte	.LVL0-.Ltext0
 351 005a 30000000 		.4byte	.LVL1-.Ltext0
 352 005e 0100     		.2byte	0x1
 353 0060 50       		.byte	0x50
 354 0061 36000000 		.4byte	.LVL3-.Ltext0
 355 0065 AA000000 		.4byte	.LVL6-.Ltext0
 356 0069 0100     		.2byte	0x1
 357 006b 55       		.byte	0x55
 358 006c 00000000 		.4byte	0x0
 359 0070 00000000 		.4byte	0x0
 360              	.LLST3:
 361 0074 2A000000 		.4byte	.LVL0-.Ltext0
 362 0078 32000000 		.4byte	.LVL2-.Ltext0
 363 007c 0100     		.2byte	0x1
 364 007e 51       		.byte	0x51
 365 007f 38000000 		.4byte	.LVL4-.Ltext0
 366 0083 AA000000 		.4byte	.LVL7-.Ltext0
 367 0087 0100     		.2byte	0x1
 368 0089 57       		.byte	0x57
 369 008a 00000000 		.4byte	0x0
 370 008e 00000000 		.4byte	0x0
 371              	.LLST4:
 372 0092 B4000000 		.4byte	.LFB2-.Ltext0
 373 0096 B6000000 		.4byte	.LCFI4-.Ltext0
 374 009a 0100     		.2byte	0x1
 375 009c 5D       		.byte	0x5d
 376 009d B6000000 		.4byte	.LCFI4-.Ltext0
 377 00a1 B8000000 		.4byte	.LCFI5-.Ltext0
 378 00a5 0200     		.2byte	0x2
 379 00a7 7D       		.byte	0x7d
 380 00a8 08       		.sleb128 8
 381 00a9 B8000000 		.4byte	.LCFI5-.Ltext0
 382 00ad EC000000 		.4byte	.LFE2-.Ltext0
 383 00b1 0200     		.2byte	0x2
 384 00b3 7D       		.byte	0x7d
 385 00b4 14       		.sleb128 20
 386 00b5 00000000 		.4byte	0x0
 387 00b9 00000000 		.4byte	0x0
 388              		.section	.debug_info
 389 0000 75010000 		.4byte	0x175
 390 0004 0200     		.2byte	0x2
 391 0006 00000000 		.4byte	.Ldebug_abbrev0
ARM GAS  /cygdrive/c/Users/embedded/AppData/Local/Temp/ccPBFbKh.s 			page 10


 392 000a 04       		.byte	0x4
 393 000b 01       		.uleb128 0x1
 394 000c 00000000 		.4byte	.Ldebug_line0
 395 0010 EC000000 		.4byte	.Letext0
 396 0014 00000000 		.4byte	.Ltext0
 397 0018 A6000000 		.4byte	.LASF17
 398 001c 01       		.byte	0x1
 399 001d 42000000 		.4byte	.LASF18
 400 0021 1B000000 		.4byte	.LASF19
 401 0025 02       		.uleb128 0x2
 402 0026 74553800 		.ascii	"tU8\000"
 403 002a 02       		.byte	0x2
 404 002b 47       		.byte	0x47
 405 002c 30000000 		.4byte	0x30
 406 0030 03       		.uleb128 0x3
 407 0031 5A000000 		.4byte	.LASF1
 408 0035 01       		.byte	0x1
 409 0036 08       		.byte	0x8
 410 0037 04       		.uleb128 0x4
 411 0038 B2000000 		.4byte	.LASF0
 412 003c 02       		.byte	0x2
 413 003d 48       		.byte	0x48
 414 003e 42000000 		.4byte	0x42
 415 0042 03       		.uleb128 0x3
 416 0043 7A000000 		.4byte	.LASF2
 417 0047 02       		.byte	0x2
 418 0048 07       		.byte	0x7
 419 0049 03       		.uleb128 0x3
 420 004a 8D000000 		.4byte	.LASF3
 421 004e 04       		.byte	0x4
 422 004f 07       		.byte	0x7
 423 0050 03       		.uleb128 0x3
 424 0051 DA000000 		.4byte	.LASF4
 425 0055 01       		.byte	0x1
 426 0056 06       		.byte	0x6
 427 0057 03       		.uleb128 0x3
 428 0058 BC000000 		.4byte	.LASF5
 429 005c 02       		.byte	0x2
 430 005d 05       		.byte	0x5
 431 005e 05       		.uleb128 0x5
 432 005f 696E7400 		.ascii	"int\000"
 433 0063 04       		.byte	0x4
 434 0064 05       		.byte	0x5
 435 0065 04       		.uleb128 0x4
 436 0066 EF000000 		.4byte	.LASF6
 437 006a 02       		.byte	0x2
 438 006b 4D       		.byte	0x4d
 439 006c 30000000 		.4byte	0x30
 440 0070 03       		.uleb128 0x3
 441 0071 68000000 		.4byte	.LASF7
 442 0075 04       		.byte	0x4
 443 0076 07       		.byte	0x7
 444 0077 06       		.uleb128 0x6
 445 0078 B1000000 		.4byte	0xb1
 446 007c 01       		.byte	0x1
 447 007d 4C000000 		.4byte	.LASF10
 448 0081 01       		.byte	0x1
ARM GAS  /cygdrive/c/Users/embedded/AppData/Local/Temp/ccPBFbKh.s 			page 11


 449 0082 6F       		.byte	0x6f
 450 0083 01       		.byte	0x1
 451 0084 37000000 		.4byte	0x37
 452 0088 00000000 		.4byte	.LFB4
 453 008c 28000000 		.4byte	.LFE4
 454 0090 00000000 		.4byte	.LLST0
 455 0094 07       		.uleb128 0x7
 456 0095 D2000000 		.4byte	.LASF8
 457 0099 01       		.byte	0x1
 458 009a 70       		.byte	0x70
 459 009b B1000000 		.4byte	0xb1
 460 009f 02       		.byte	0x2
 461 00a0 91       		.byte	0x91
 462 00a1 77       		.sleb128 -9
 463 00a2 07       		.uleb128 0x7
 464 00a3 E6000000 		.4byte	.LASF9
 465 00a7 01       		.byte	0x1
 466 00a8 71       		.byte	0x71
 467 00a9 C1000000 		.4byte	0xc1
 468 00ad 02       		.byte	0x2
 469 00ae 91       		.byte	0x91
 470 00af 74       		.sleb128 -12
 471 00b0 00       		.byte	0x0
 472 00b1 08       		.uleb128 0x8
 473 00b2 C1000000 		.4byte	0xc1
 474 00b6 25000000 		.4byte	0x25
 475 00ba 09       		.uleb128 0x9
 476 00bb 70000000 		.4byte	0x70
 477 00bf 00       		.byte	0x0
 478 00c0 00       		.byte	0x0
 479 00c1 08       		.uleb128 0x8
 480 00c2 D1000000 		.4byte	0xd1
 481 00c6 25000000 		.4byte	0x25
 482 00ca 09       		.uleb128 0x9
 483 00cb 70000000 		.4byte	0x70
 484 00cf 02       		.byte	0x2
 485 00d0 00       		.byte	0x0
 486 00d1 0A       		.uleb128 0xa
 487 00d2 30010000 		.4byte	0x130
 488 00d6 01       		.byte	0x1
 489 00d7 00000000 		.4byte	.LASF11
 490 00db 01       		.byte	0x1
 491 00dc 47       		.byte	0x47
 492 00dd 01       		.byte	0x1
 493 00de 28000000 		.4byte	.LFB3
 494 00e2 B4000000 		.4byte	.LFE3
 495 00e6 2B000000 		.4byte	.LLST1
 496 00ea 0B       		.uleb128 0xb
 497 00eb 0E000000 		.4byte	.LASF12
 498 00ef 01       		.byte	0x1
 499 00f0 46       		.byte	0x46
 500 00f1 25000000 		.4byte	0x25
 501 00f5 56000000 		.4byte	.LLST2
 502 00f9 0B       		.uleb128 0xb
 503 00fa 15000000 		.4byte	.LASF13
 504 00fe 01       		.byte	0x1
 505 00ff 46       		.byte	0x46
ARM GAS  /cygdrive/c/Users/embedded/AppData/Local/Temp/ccPBFbKh.s 			page 12


 506 0100 25000000 		.4byte	0x25
 507 0104 74000000 		.4byte	.LLST3
 508 0108 07       		.uleb128 0x7
 509 0109 D2000000 		.4byte	.LASF8
 510 010d 01       		.byte	0x1
 511 010e 48       		.byte	0x48
 512 010f 30010000 		.4byte	0x130
 513 0113 02       		.byte	0x2
 514 0114 91       		.byte	0x91
 515 0115 69       		.sleb128 -23
 516 0116 07       		.uleb128 0x7
 517 0117 E6000000 		.4byte	.LASF9
 518 011b 01       		.byte	0x1
 519 011c 49       		.byte	0x49
 520 011d 25000000 		.4byte	0x25
 521 0121 02       		.byte	0x2
 522 0122 74       		.byte	0x74
 523 0123 00       		.sleb128 0
 524 0124 0C       		.uleb128 0xc
 525 0125 B7000000 		.4byte	.LASF14
 526 0129 01       		.byte	0x1
 527 012a 4A       		.byte	0x4a
 528 012b 25000000 		.4byte	0x25
 529 012f 00       		.byte	0x0
 530 0130 08       		.uleb128 0x8
 531 0131 40010000 		.4byte	0x140
 532 0135 25000000 		.4byte	0x25
 533 0139 09       		.uleb128 0x9
 534 013a 70000000 		.4byte	0x70
 535 013e 01       		.byte	0x1
 536 013f 00       		.byte	0x0
 537 0140 06       		.uleb128 0x6
 538 0141 6C010000 		.4byte	0x16c
 539 0145 01       		.byte	0x1
 540 0146 C6000000 		.4byte	.LASF15
 541 014a 01       		.byte	0x1
 542 014b 33       		.byte	0x33
 543 014c 01       		.byte	0x1
 544 014d 65000000 		.4byte	0x65
 545 0151 B4000000 		.4byte	.LFB2
 546 0155 EC000000 		.4byte	.LFE2
 547 0159 92000000 		.4byte	.LLST4
 548 015d 07       		.uleb128 0x7
 549 015e 9A000000 		.4byte	.LASF16
 550 0162 01       		.byte	0x1
 551 0163 34       		.byte	0x34
 552 0164 6C010000 		.4byte	0x16c
 553 0168 02       		.byte	0x2
 554 0169 91       		.byte	0x91
 555 016a 6F       		.sleb128 -17
 556 016b 00       		.byte	0x0
 557 016c 0D       		.uleb128 0xd
 558 016d 25000000 		.4byte	0x25
 559 0171 09       		.uleb128 0x9
 560 0172 70000000 		.4byte	0x70
 561 0176 08       		.byte	0x8
 562 0177 00       		.byte	0x0
ARM GAS  /cygdrive/c/Users/embedded/AppData/Local/Temp/ccPBFbKh.s 			page 13


 563 0178 00       		.byte	0x0
 564              		.section	.debug_abbrev
 565 0000 01       		.uleb128 0x1
 566 0001 11       		.uleb128 0x11
 567 0002 01       		.byte	0x1
 568 0003 10       		.uleb128 0x10
 569 0004 06       		.uleb128 0x6
 570 0005 12       		.uleb128 0x12
 571 0006 01       		.uleb128 0x1
 572 0007 11       		.uleb128 0x11
 573 0008 01       		.uleb128 0x1
 574 0009 25       		.uleb128 0x25
 575 000a 0E       		.uleb128 0xe
 576 000b 13       		.uleb128 0x13
 577 000c 0B       		.uleb128 0xb
 578 000d 03       		.uleb128 0x3
 579 000e 0E       		.uleb128 0xe
 580 000f 1B       		.uleb128 0x1b
 581 0010 0E       		.uleb128 0xe
 582 0011 00       		.byte	0x0
 583 0012 00       		.byte	0x0
 584 0013 02       		.uleb128 0x2
 585 0014 16       		.uleb128 0x16
 586 0015 00       		.byte	0x0
 587 0016 03       		.uleb128 0x3
 588 0017 08       		.uleb128 0x8
 589 0018 3A       		.uleb128 0x3a
 590 0019 0B       		.uleb128 0xb
 591 001a 3B       		.uleb128 0x3b
 592 001b 0B       		.uleb128 0xb
 593 001c 49       		.uleb128 0x49
 594 001d 13       		.uleb128 0x13
 595 001e 00       		.byte	0x0
 596 001f 00       		.byte	0x0
 597 0020 03       		.uleb128 0x3
 598 0021 24       		.uleb128 0x24
 599 0022 00       		.byte	0x0
 600 0023 03       		.uleb128 0x3
 601 0024 0E       		.uleb128 0xe
 602 0025 0B       		.uleb128 0xb
 603 0026 0B       		.uleb128 0xb
 604 0027 3E       		.uleb128 0x3e
 605 0028 0B       		.uleb128 0xb
 606 0029 00       		.byte	0x0
 607 002a 00       		.byte	0x0
 608 002b 04       		.uleb128 0x4
 609 002c 16       		.uleb128 0x16
 610 002d 00       		.byte	0x0
 611 002e 03       		.uleb128 0x3
 612 002f 0E       		.uleb128 0xe
 613 0030 3A       		.uleb128 0x3a
 614 0031 0B       		.uleb128 0xb
 615 0032 3B       		.uleb128 0x3b
 616 0033 0B       		.uleb128 0xb
 617 0034 49       		.uleb128 0x49
 618 0035 13       		.uleb128 0x13
 619 0036 00       		.byte	0x0
ARM GAS  /cygdrive/c/Users/embedded/AppData/Local/Temp/ccPBFbKh.s 			page 14


 620 0037 00       		.byte	0x0
 621 0038 05       		.uleb128 0x5
 622 0039 24       		.uleb128 0x24
 623 003a 00       		.byte	0x0
 624 003b 03       		.uleb128 0x3
 625 003c 08       		.uleb128 0x8
 626 003d 0B       		.uleb128 0xb
 627 003e 0B       		.uleb128 0xb
 628 003f 3E       		.uleb128 0x3e
 629 0040 0B       		.uleb128 0xb
 630 0041 00       		.byte	0x0
 631 0042 00       		.byte	0x0
 632 0043 06       		.uleb128 0x6
 633 0044 2E       		.uleb128 0x2e
 634 0045 01       		.byte	0x1
 635 0046 01       		.uleb128 0x1
 636 0047 13       		.uleb128 0x13
 637 0048 3F       		.uleb128 0x3f
 638 0049 0C       		.uleb128 0xc
 639 004a 03       		.uleb128 0x3
 640 004b 0E       		.uleb128 0xe
 641 004c 3A       		.uleb128 0x3a
 642 004d 0B       		.uleb128 0xb
 643 004e 3B       		.uleb128 0x3b
 644 004f 0B       		.uleb128 0xb
 645 0050 27       		.uleb128 0x27
 646 0051 0C       		.uleb128 0xc
 647 0052 49       		.uleb128 0x49
 648 0053 13       		.uleb128 0x13
 649 0054 11       		.uleb128 0x11
 650 0055 01       		.uleb128 0x1
 651 0056 12       		.uleb128 0x12
 652 0057 01       		.uleb128 0x1
 653 0058 40       		.uleb128 0x40
 654 0059 06       		.uleb128 0x6
 655 005a 00       		.byte	0x0
 656 005b 00       		.byte	0x0
 657 005c 07       		.uleb128 0x7
 658 005d 34       		.uleb128 0x34
 659 005e 00       		.byte	0x0
 660 005f 03       		.uleb128 0x3
 661 0060 0E       		.uleb128 0xe
 662 0061 3A       		.uleb128 0x3a
 663 0062 0B       		.uleb128 0xb
 664 0063 3B       		.uleb128 0x3b
 665 0064 0B       		.uleb128 0xb
 666 0065 49       		.uleb128 0x49
 667 0066 13       		.uleb128 0x13
 668 0067 02       		.uleb128 0x2
 669 0068 0A       		.uleb128 0xa
 670 0069 00       		.byte	0x0
 671 006a 00       		.byte	0x0
 672 006b 08       		.uleb128 0x8
 673 006c 01       		.uleb128 0x1
 674 006d 01       		.byte	0x1
 675 006e 01       		.uleb128 0x1
 676 006f 13       		.uleb128 0x13
ARM GAS  /cygdrive/c/Users/embedded/AppData/Local/Temp/ccPBFbKh.s 			page 15


 677 0070 49       		.uleb128 0x49
 678 0071 13       		.uleb128 0x13
 679 0072 00       		.byte	0x0
 680 0073 00       		.byte	0x0
 681 0074 09       		.uleb128 0x9
 682 0075 21       		.uleb128 0x21
 683 0076 00       		.byte	0x0
 684 0077 49       		.uleb128 0x49
 685 0078 13       		.uleb128 0x13
 686 0079 2F       		.uleb128 0x2f
 687 007a 0B       		.uleb128 0xb
 688 007b 00       		.byte	0x0
 689 007c 00       		.byte	0x0
 690 007d 0A       		.uleb128 0xa
 691 007e 2E       		.uleb128 0x2e
 692 007f 01       		.byte	0x1
 693 0080 01       		.uleb128 0x1
 694 0081 13       		.uleb128 0x13
 695 0082 3F       		.uleb128 0x3f
 696 0083 0C       		.uleb128 0xc
 697 0084 03       		.uleb128 0x3
 698 0085 0E       		.uleb128 0xe
 699 0086 3A       		.uleb128 0x3a
 700 0087 0B       		.uleb128 0xb
 701 0088 3B       		.uleb128 0x3b
 702 0089 0B       		.uleb128 0xb
 703 008a 27       		.uleb128 0x27
 704 008b 0C       		.uleb128 0xc
 705 008c 11       		.uleb128 0x11
 706 008d 01       		.uleb128 0x1
 707 008e 12       		.uleb128 0x12
 708 008f 01       		.uleb128 0x1
 709 0090 40       		.uleb128 0x40
 710 0091 06       		.uleb128 0x6
 711 0092 00       		.byte	0x0
 712 0093 00       		.byte	0x0
 713 0094 0B       		.uleb128 0xb
 714 0095 05       		.uleb128 0x5
 715 0096 00       		.byte	0x0
 716 0097 03       		.uleb128 0x3
 717 0098 0E       		.uleb128 0xe
 718 0099 3A       		.uleb128 0x3a
 719 009a 0B       		.uleb128 0xb
 720 009b 3B       		.uleb128 0x3b
 721 009c 0B       		.uleb128 0xb
 722 009d 49       		.uleb128 0x49
 723 009e 13       		.uleb128 0x13
 724 009f 02       		.uleb128 0x2
 725 00a0 06       		.uleb128 0x6
 726 00a1 00       		.byte	0x0
 727 00a2 00       		.byte	0x0
 728 00a3 0C       		.uleb128 0xc
 729 00a4 34       		.uleb128 0x34
 730 00a5 00       		.byte	0x0
 731 00a6 03       		.uleb128 0x3
 732 00a7 0E       		.uleb128 0xe
 733 00a8 3A       		.uleb128 0x3a
ARM GAS  /cygdrive/c/Users/embedded/AppData/Local/Temp/ccPBFbKh.s 			page 16


 734 00a9 0B       		.uleb128 0xb
 735 00aa 3B       		.uleb128 0x3b
 736 00ab 0B       		.uleb128 0xb
 737 00ac 49       		.uleb128 0x49
 738 00ad 13       		.uleb128 0x13
 739 00ae 00       		.byte	0x0
 740 00af 00       		.byte	0x0
 741 00b0 0D       		.uleb128 0xd
 742 00b1 01       		.uleb128 0x1
 743 00b2 01       		.byte	0x1
 744 00b3 49       		.uleb128 0x49
 745 00b4 13       		.uleb128 0x13
 746 00b5 00       		.byte	0x0
 747 00b6 00       		.byte	0x0
 748 00b7 00       		.byte	0x0
 749              		.section	.debug_pubnames,"",%progbits
 750 0000 42000000 		.4byte	0x42
 751 0004 0200     		.2byte	0x2
 752 0006 00000000 		.4byte	.Ldebug_info0
 753 000a 79010000 		.4byte	0x179
 754 000e 77000000 		.4byte	0x77
 755 0012 67657450 		.ascii	"getPca9532Pin\000"
 755      63613935 
 755      33325069 
 755      6E00
 756 0020 D1000000 		.4byte	0xd1
 757 0024 73657450 		.ascii	"setPca9532Pin\000"
 757      63613935 
 757      33325069 
 757      6E00
 758 0032 40010000 		.4byte	0x140
 759 0036 70636139 		.ascii	"pca9532Init\000"
 759      35333249 
 759      6E697400 
 760 0042 00000000 		.4byte	0x0
 761              		.section	.debug_aranges,"",%progbits
 762 0000 1C000000 		.4byte	0x1c
 763 0004 0200     		.2byte	0x2
 764 0006 00000000 		.4byte	.Ldebug_info0
 765 000a 04       		.byte	0x4
 766 000b 00       		.byte	0x0
 767 000c 0000     		.2byte	0x0
 768 000e 0000     		.2byte	0x0
 769 0010 00000000 		.4byte	.Ltext0
 770 0014 EC000000 		.4byte	.Letext0-.Ltext0
 771 0018 00000000 		.4byte	0x0
 772 001c 00000000 		.4byte	0x0
 773              		.section	.debug_str,"MS",%progbits,1
 774              	.LASF11:
 775 0000 73657450 		.ascii	"setPca9532Pin\000"
 775      63613935 
 775      33325069 
 775      6E00
 776              	.LASF12:
 777 000e 70696E4E 		.ascii	"pinNum\000"
 777      756D00
 778              	.LASF13:
ARM GAS  /cygdrive/c/Users/embedded/AppData/Local/Temp/ccPBFbKh.s 			page 17


 779 0015 76616C75 		.ascii	"value\000"
 779      6500
 780              	.LASF19:
 781 001b 2F637967 		.ascii	"/cygdrive/c/Embedded/eclipse/Demo/2138\000"
 781      64726976 
 781      652F632F 
 781      456D6265 
 781      64646564 
 782              	.LASF18:
 783 0042 70636139 		.ascii	"pca9532.c\000"
 783      3533322E 
 783      6300
 784              	.LASF10:
 785 004c 67657450 		.ascii	"getPca9532Pin\000"
 785      63613935 
 785      33325069 
 785      6E00
 786              	.LASF1:
 787 005a 756E7369 		.ascii	"unsigned char\000"
 787      676E6564 
 787      20636861 
 787      7200
 788              	.LASF7:
 789 0068 6C6F6E67 		.ascii	"long unsigned int\000"
 789      20756E73 
 789      69676E65 
 789      6420696E 
 789      7400
 790              	.LASF2:
 791 007a 73686F72 		.ascii	"short unsigned int\000"
 791      7420756E 
 791      7369676E 
 791      65642069 
 791      6E7400
 792              	.LASF3:
 793 008d 756E7369 		.ascii	"unsigned int\000"
 793      676E6564 
 793      20696E74 
 793      00
 794              	.LASF16:
 795 009a 696E6974 		.ascii	"initCommand\000"
 795      436F6D6D 
 795      616E6400 
 796              	.LASF17:
 797 00a6 474E5520 		.ascii	"GNU C 4.1.1\000"
 797      4320342E 
 797      312E3100 
 798              	.LASF0:
 799 00b2 74553136 		.ascii	"tU16\000"
 799      00
 800              	.LASF14:
 801 00b7 6D61736B 		.ascii	"mask\000"
 801      00
 802              	.LASF5:
 803 00bc 73686F72 		.ascii	"short int\000"
 803      7420696E 
 803      7400
ARM GAS  /cygdrive/c/Users/embedded/AppData/Local/Temp/ccPBFbKh.s 			page 18


 804              	.LASF15:
 805 00c6 70636139 		.ascii	"pca9532Init\000"
 805      35333249 
 805      6E697400 
 806              	.LASF8:
 807 00d2 636F6D6D 		.ascii	"command\000"
 807      616E6400 
 808              	.LASF4:
 809 00da 7369676E 		.ascii	"signed char\000"
 809      65642063 
 809      68617200 
 810              	.LASF9:
 811 00e6 72656756 		.ascii	"regValue\000"
 811      616C7565 
 811      00
 812              	.LASF6:
 813 00ef 74426F6F 		.ascii	"tBool\000"
 813      6C00
 814              		.ident	"GCC: (GNU) 4.1.1"
ARM GAS  /cygdrive/c/Users/embedded/AppData/Local/Temp/ccPBFbKh.s 			page 19


DEFINED SYMBOLS
                            *ABS*:00000000 pca9532.c
/cygdrive/c/Users/embedded/AppData/Local/Temp/ccPBFbKh.s:1      .text:00000000 $t
/cygdrive/c/Users/embedded/AppData/Local/Temp/ccPBFbKh.s:16     .text:00000000 getPca9532Pin
/cygdrive/c/Users/embedded/AppData/Local/Temp/ccPBFbKh.s:54     .text:00000028 setPca9532Pin
/cygdrive/c/Users/embedded/AppData/Local/Temp/ccPBFbKh.s:164    .text:000000b0 $d
/cygdrive/c/Users/embedded/AppData/Local/Temp/ccPBFbKh.s:215    .rodata:00000000 C.1.1456
/cygdrive/c/Users/embedded/AppData/Local/Temp/ccPBFbKh.s:172    .text:000000b4 pca9532Init
/cygdrive/c/Users/embedded/AppData/Local/Temp/ccPBFbKh.s:169    .text:000000b4 $t
/cygdrive/c/Users/embedded/AppData/Local/Temp/ccPBFbKh.s:209    .text:000000e8 $d
/cygdrive/c/Users/embedded/AppData/Local/Temp/ccPBFbKh.s:219    .rodata:00000002 C.0.1446

UNDEFINED SYMBOLS
pca9532
memcpy
